
hello.elf:     file format elf32-littleriscv


Disassembly of section .text:

00010074 <register_fini>:
   10074:	000007b7          	lui	a5,0x0
   10078:	00078793          	mv	a5,a5
   1007c:	00078863          	beqz	a5,1008c <register_fini+0x18>
   10080:	00014537          	lui	a0,0x14
   10084:	9a850513          	addi	a0,a0,-1624 # 139a8 <__libc_fini_array>
   10088:	2c80306f          	j	13350 <atexit>
   1008c:	00008067          	ret

00010090 <_start>:
   10090:	00017197          	auipc	gp,0x17
   10094:	d1818193          	addi	gp,gp,-744 # 26da8 <__global_pointer$>
   10098:	1cc18513          	addi	a0,gp,460 # 26f74 <_edata>
   1009c:	22818613          	addi	a2,gp,552 # 26fd0 <__BSS_END__>
   100a0:	40a60633          	sub	a2,a2,a0
   100a4:	00000593          	li	a1,0
   100a8:	1cc000ef          	jal	ra,10274 <memset>
   100ac:	00003517          	auipc	a0,0x3
   100b0:	2a450513          	addi	a0,a0,676 # 13350 <atexit>
   100b4:	00050863          	beqz	a0,100c4 <_start+0x34>
   100b8:	00004517          	auipc	a0,0x4
   100bc:	8f050513          	addi	a0,a0,-1808 # 139a8 <__libc_fini_array>
   100c0:	290030ef          	jal	ra,13350 <atexit>
   100c4:	114000ef          	jal	ra,101d8 <__libc_init_array>
   100c8:	00012503          	lw	a0,0(sp)
   100cc:	00410593          	addi	a1,sp,4
   100d0:	00000613          	li	a2,0
   100d4:	07c000ef          	jal	ra,10150 <main>
   100d8:	0d00006f          	j	101a8 <exit>

000100dc <__do_global_dtors_aux>:
   100dc:	1e01c703          	lbu	a4,480(gp) # 26f88 <completed.5490>
   100e0:	04071463          	bnez	a4,10128 <__do_global_dtors_aux+0x4c>
   100e4:	ff010113          	addi	sp,sp,-16
   100e8:	00812423          	sw	s0,8(sp)
   100ec:	00078413          	mv	s0,a5
   100f0:	000007b7          	lui	a5,0x0
   100f4:	00112623          	sw	ra,12(sp)
   100f8:	00078793          	mv	a5,a5
   100fc:	00078a63          	beqz	a5,10110 <__do_global_dtors_aux+0x34>
   10100:	00026537          	lui	a0,0x26
   10104:	4e450513          	addi	a0,a0,1252 # 264e4 <__EH_FRAME_BEGIN__>
   10108:	00000097          	auipc	ra,0x0
   1010c:	000000e7          	jalr	zero # 0 <register_fini-0x10074>
   10110:	00100793          	li	a5,1
   10114:	00c12083          	lw	ra,12(sp)
   10118:	1ef18023          	sb	a5,480(gp) # 26f88 <completed.5490>
   1011c:	00812403          	lw	s0,8(sp)
   10120:	01010113          	addi	sp,sp,16
   10124:	00008067          	ret
   10128:	00008067          	ret

0001012c <frame_dummy>:
   1012c:	000007b7          	lui	a5,0x0
   10130:	00078793          	mv	a5,a5
   10134:	00078c63          	beqz	a5,1014c <frame_dummy+0x20>
   10138:	00026537          	lui	a0,0x26
   1013c:	1e418593          	addi	a1,gp,484 # 26f8c <object.5495>
   10140:	4e450513          	addi	a0,a0,1252 # 264e4 <__EH_FRAME_BEGIN__>
   10144:	00000317          	auipc	t1,0x0
   10148:	00000067          	jr	zero # 0 <register_fini-0x10074>
   1014c:	00008067          	ret

00010150 <main>:
   10150:	fe010113          	addi	sp,sp,-32
   10154:	00112e23          	sw	ra,28(sp)
   10158:	00812c23          	sw	s0,24(sp)
   1015c:	02010413          	addi	s0,sp,32
   10160:	000247b7          	lui	a5,0x24
   10164:	7e878513          	addi	a0,a5,2024 # 247e8 <__clzsi2+0x4c>
   10168:	344000ef          	jal	ra,104ac <puts>
   1016c:	00100793          	li	a5,1
   10170:	fef42623          	sw	a5,-20(s0)
   10174:	fec42783          	lw	a5,-20(s0)
   10178:	00178793          	addi	a5,a5,1
   1017c:	fef42623          	sw	a5,-20(s0)
   10180:	fec42583          	lw	a1,-20(s0)
   10184:	000247b7          	lui	a5,0x24
   10188:	7f878513          	addi	a0,a5,2040 # 247f8 <__clzsi2+0x5c>
   1018c:	204000ef          	jal	ra,10390 <printf>
   10190:	00000793          	li	a5,0
   10194:	00078513          	mv	a0,a5
   10198:	01c12083          	lw	ra,28(sp)
   1019c:	01812403          	lw	s0,24(sp)
   101a0:	02010113          	addi	sp,sp,32
   101a4:	00008067          	ret

000101a8 <exit>:
   101a8:	ff010113          	addi	sp,sp,-16
   101ac:	00000593          	li	a1,0
   101b0:	00812423          	sw	s0,8(sp)
   101b4:	00112623          	sw	ra,12(sp)
   101b8:	00050413          	mv	s0,a0
   101bc:	074030ef          	jal	ra,13230 <__call_exitprocs>
   101c0:	1b81a503          	lw	a0,440(gp) # 26f60 <_global_impure_ptr>
   101c4:	03c52783          	lw	a5,60(a0)
   101c8:	00078463          	beqz	a5,101d0 <exit+0x28>
   101cc:	000780e7          	jalr	a5
   101d0:	00040513          	mv	a0,s0
   101d4:	4740f0ef          	jal	ra,1f648 <_exit>

000101d8 <__libc_init_array>:
   101d8:	ff010113          	addi	sp,sp,-16
   101dc:	00812423          	sw	s0,8(sp)
   101e0:	01212023          	sw	s2,0(sp)
   101e4:	00026437          	lui	s0,0x26
   101e8:	00026937          	lui	s2,0x26
   101ec:	59840793          	addi	a5,s0,1432 # 26598 <__init_array_start>
   101f0:	59890913          	addi	s2,s2,1432 # 26598 <__init_array_start>
   101f4:	40f90933          	sub	s2,s2,a5
   101f8:	00112623          	sw	ra,12(sp)
   101fc:	00912223          	sw	s1,4(sp)
   10200:	40295913          	srai	s2,s2,0x2
   10204:	02090063          	beqz	s2,10224 <__libc_init_array+0x4c>
   10208:	59840413          	addi	s0,s0,1432
   1020c:	00000493          	li	s1,0
   10210:	00042783          	lw	a5,0(s0)
   10214:	00148493          	addi	s1,s1,1
   10218:	00440413          	addi	s0,s0,4
   1021c:	000780e7          	jalr	a5
   10220:	fe9918e3          	bne	s2,s1,10210 <__libc_init_array+0x38>
   10224:	00026437          	lui	s0,0x26
   10228:	00026937          	lui	s2,0x26
   1022c:	59840793          	addi	a5,s0,1432 # 26598 <__init_array_start>
   10230:	5a090913          	addi	s2,s2,1440 # 265a0 <__init_array_end>
   10234:	40f90933          	sub	s2,s2,a5
   10238:	40295913          	srai	s2,s2,0x2
   1023c:	02090063          	beqz	s2,1025c <__libc_init_array+0x84>
   10240:	59840413          	addi	s0,s0,1432
   10244:	00000493          	li	s1,0
   10248:	00042783          	lw	a5,0(s0)
   1024c:	00148493          	addi	s1,s1,1
   10250:	00440413          	addi	s0,s0,4
   10254:	000780e7          	jalr	a5
   10258:	fe9918e3          	bne	s2,s1,10248 <__libc_init_array+0x70>
   1025c:	00c12083          	lw	ra,12(sp)
   10260:	00812403          	lw	s0,8(sp)
   10264:	00412483          	lw	s1,4(sp)
   10268:	00012903          	lw	s2,0(sp)
   1026c:	01010113          	addi	sp,sp,16
   10270:	00008067          	ret

00010274 <memset>:
   10274:	00f00313          	li	t1,15
   10278:	00050713          	mv	a4,a0
   1027c:	02c37e63          	bgeu	t1,a2,102b8 <memset+0x44>
   10280:	00f77793          	andi	a5,a4,15
   10284:	0a079063          	bnez	a5,10324 <memset+0xb0>
   10288:	08059263          	bnez	a1,1030c <memset+0x98>
   1028c:	ff067693          	andi	a3,a2,-16
   10290:	00f67613          	andi	a2,a2,15
   10294:	00e686b3          	add	a3,a3,a4
   10298:	00b72023          	sw	a1,0(a4)
   1029c:	00b72223          	sw	a1,4(a4)
   102a0:	00b72423          	sw	a1,8(a4)
   102a4:	00b72623          	sw	a1,12(a4)
   102a8:	01070713          	addi	a4,a4,16
   102ac:	fed766e3          	bltu	a4,a3,10298 <memset+0x24>
   102b0:	00061463          	bnez	a2,102b8 <memset+0x44>
   102b4:	00008067          	ret
   102b8:	40c306b3          	sub	a3,t1,a2
   102bc:	00269693          	slli	a3,a3,0x2
   102c0:	00000297          	auipc	t0,0x0
   102c4:	005686b3          	add	a3,a3,t0
   102c8:	00c68067          	jr	12(a3)
   102cc:	00b70723          	sb	a1,14(a4)
   102d0:	00b706a3          	sb	a1,13(a4)
   102d4:	00b70623          	sb	a1,12(a4)
   102d8:	00b705a3          	sb	a1,11(a4)
   102dc:	00b70523          	sb	a1,10(a4)
   102e0:	00b704a3          	sb	a1,9(a4)
   102e4:	00b70423          	sb	a1,8(a4)
   102e8:	00b703a3          	sb	a1,7(a4)
   102ec:	00b70323          	sb	a1,6(a4)
   102f0:	00b702a3          	sb	a1,5(a4)
   102f4:	00b70223          	sb	a1,4(a4)
   102f8:	00b701a3          	sb	a1,3(a4)
   102fc:	00b70123          	sb	a1,2(a4)
   10300:	00b700a3          	sb	a1,1(a4)
   10304:	00b70023          	sb	a1,0(a4)
   10308:	00008067          	ret
   1030c:	0ff5f593          	andi	a1,a1,255
   10310:	00859693          	slli	a3,a1,0x8
   10314:	00d5e5b3          	or	a1,a1,a3
   10318:	01059693          	slli	a3,a1,0x10
   1031c:	00d5e5b3          	or	a1,a1,a3
   10320:	f6dff06f          	j	1028c <memset+0x18>
   10324:	00279693          	slli	a3,a5,0x2
   10328:	00000297          	auipc	t0,0x0
   1032c:	005686b3          	add	a3,a3,t0
   10330:	00008293          	mv	t0,ra
   10334:	fa0680e7          	jalr	-96(a3)
   10338:	00028093          	mv	ra,t0
   1033c:	ff078793          	addi	a5,a5,-16
   10340:	40f70733          	sub	a4,a4,a5
   10344:	00f60633          	add	a2,a2,a5
   10348:	f6c378e3          	bgeu	t1,a2,102b8 <memset+0x44>
   1034c:	f3dff06f          	j	10288 <memset+0x14>

00010350 <_printf_r>:
   10350:	fc010113          	addi	sp,sp,-64
   10354:	02c12423          	sw	a2,40(sp)
   10358:	02d12623          	sw	a3,44(sp)
   1035c:	02e12823          	sw	a4,48(sp)
   10360:	02f12a23          	sw	a5,52(sp)
   10364:	03012c23          	sw	a6,56(sp)
   10368:	03112e23          	sw	a7,60(sp)
   1036c:	00058613          	mv	a2,a1
   10370:	00852583          	lw	a1,8(a0)
   10374:	02810693          	addi	a3,sp,40
   10378:	00112e23          	sw	ra,28(sp)
   1037c:	00d12623          	sw	a3,12(sp)
   10380:	1c4000ef          	jal	ra,10544 <_vfprintf_r>
   10384:	01c12083          	lw	ra,28(sp)
   10388:	04010113          	addi	sp,sp,64
   1038c:	00008067          	ret

00010390 <printf>:
   10390:	1c01a303          	lw	t1,448(gp) # 26f68 <_impure_ptr>
   10394:	fc010113          	addi	sp,sp,-64
   10398:	02c12423          	sw	a2,40(sp)
   1039c:	02d12623          	sw	a3,44(sp)
   103a0:	02b12223          	sw	a1,36(sp)
   103a4:	02e12823          	sw	a4,48(sp)
   103a8:	02f12a23          	sw	a5,52(sp)
   103ac:	03012c23          	sw	a6,56(sp)
   103b0:	03112e23          	sw	a7,60(sp)
   103b4:	00832583          	lw	a1,8(t1) # 1014c <frame_dummy+0x20>
   103b8:	02410693          	addi	a3,sp,36
   103bc:	00050613          	mv	a2,a0
   103c0:	00030513          	mv	a0,t1
   103c4:	00112e23          	sw	ra,28(sp)
   103c8:	00d12623          	sw	a3,12(sp)
   103cc:	178000ef          	jal	ra,10544 <_vfprintf_r>
   103d0:	01c12083          	lw	ra,28(sp)
   103d4:	04010113          	addi	sp,sp,64
   103d8:	00008067          	ret

000103dc <_puts_r>:
   103dc:	fc010113          	addi	sp,sp,-64
   103e0:	02812c23          	sw	s0,56(sp)
   103e4:	00050413          	mv	s0,a0
   103e8:	00058513          	mv	a0,a1
   103ec:	02912a23          	sw	s1,52(sp)
   103f0:	02112e23          	sw	ra,60(sp)
   103f4:	00058493          	mv	s1,a1
   103f8:	0c0000ef          	jal	ra,104b8 <strlen>
   103fc:	000257b7          	lui	a5,0x25
   10400:	80078793          	addi	a5,a5,-2048 # 24800 <__clzsi2+0x64>
   10404:	02f12423          	sw	a5,40(sp)
   10408:	00100793          	li	a5,1
   1040c:	02f12623          	sw	a5,44(sp)
   10410:	03842703          	lw	a4,56(s0)
   10414:	02010793          	addi	a5,sp,32
   10418:	00150693          	addi	a3,a0,1
   1041c:	00f12a23          	sw	a5,20(sp)
   10420:	00200793          	li	a5,2
   10424:	02912023          	sw	s1,32(sp)
   10428:	02a12223          	sw	a0,36(sp)
   1042c:	00d12e23          	sw	a3,28(sp)
   10430:	00f12c23          	sw	a5,24(sp)
   10434:	00842583          	lw	a1,8(s0)
   10438:	06070063          	beqz	a4,10498 <_puts_r+0xbc>
   1043c:	00c59783          	lh	a5,12(a1)
   10440:	01279713          	slli	a4,a5,0x12
   10444:	02074263          	bltz	a4,10468 <_puts_r+0x8c>
   10448:	0645a703          	lw	a4,100(a1)
   1044c:	000026b7          	lui	a3,0x2
   10450:	00d7e7b3          	or	a5,a5,a3
   10454:	ffffe6b7          	lui	a3,0xffffe
   10458:	fff68693          	addi	a3,a3,-1 # ffffdfff <__BSS_END__+0xfffd702f>
   1045c:	00d77733          	and	a4,a4,a3
   10460:	00f59623          	sh	a5,12(a1)
   10464:	06e5a223          	sw	a4,100(a1)
   10468:	01410613          	addi	a2,sp,20
   1046c:	00040513          	mv	a0,s0
   10470:	1c5030ef          	jal	ra,13e34 <__sfvwrite_r>
   10474:	03c12083          	lw	ra,60(sp)
   10478:	03812403          	lw	s0,56(sp)
   1047c:	00a03533          	snez	a0,a0
   10480:	40a00533          	neg	a0,a0
   10484:	ff557513          	andi	a0,a0,-11
   10488:	03412483          	lw	s1,52(sp)
   1048c:	00a50513          	addi	a0,a0,10
   10490:	04010113          	addi	sp,sp,64
   10494:	00008067          	ret
   10498:	00040513          	mv	a0,s0
   1049c:	00b12623          	sw	a1,12(sp)
   104a0:	4c8030ef          	jal	ra,13968 <__sinit>
   104a4:	00c12583          	lw	a1,12(sp)
   104a8:	f95ff06f          	j	1043c <_puts_r+0x60>

000104ac <puts>:
   104ac:	00050593          	mv	a1,a0
   104b0:	1c01a503          	lw	a0,448(gp) # 26f68 <_impure_ptr>
   104b4:	f29ff06f          	j	103dc <_puts_r>

000104b8 <strlen>:
   104b8:	00357793          	andi	a5,a0,3
   104bc:	00050713          	mv	a4,a0
   104c0:	04079c63          	bnez	a5,10518 <strlen+0x60>
   104c4:	7f7f86b7          	lui	a3,0x7f7f8
   104c8:	f7f68693          	addi	a3,a3,-129 # 7f7f7f7f <__BSS_END__+0x7f7d0faf>
   104cc:	fff00593          	li	a1,-1
   104d0:	00072603          	lw	a2,0(a4)
   104d4:	00470713          	addi	a4,a4,4
   104d8:	00d677b3          	and	a5,a2,a3
   104dc:	00d787b3          	add	a5,a5,a3
   104e0:	00c7e7b3          	or	a5,a5,a2
   104e4:	00d7e7b3          	or	a5,a5,a3
   104e8:	feb784e3          	beq	a5,a1,104d0 <strlen+0x18>
   104ec:	ffc74683          	lbu	a3,-4(a4)
   104f0:	ffd74603          	lbu	a2,-3(a4)
   104f4:	ffe74783          	lbu	a5,-2(a4)
   104f8:	40a70733          	sub	a4,a4,a0
   104fc:	04068063          	beqz	a3,1053c <strlen+0x84>
   10500:	02060a63          	beqz	a2,10534 <strlen+0x7c>
   10504:	00f03533          	snez	a0,a5
   10508:	00e50533          	add	a0,a0,a4
   1050c:	ffe50513          	addi	a0,a0,-2
   10510:	00008067          	ret
   10514:	fa0688e3          	beqz	a3,104c4 <strlen+0xc>
   10518:	00074783          	lbu	a5,0(a4)
   1051c:	00170713          	addi	a4,a4,1
   10520:	00377693          	andi	a3,a4,3
   10524:	fe0798e3          	bnez	a5,10514 <strlen+0x5c>
   10528:	40a70733          	sub	a4,a4,a0
   1052c:	fff70513          	addi	a0,a4,-1
   10530:	00008067          	ret
   10534:	ffd70513          	addi	a0,a4,-3
   10538:	00008067          	ret
   1053c:	ffc70513          	addi	a0,a4,-4
   10540:	00008067          	ret

00010544 <_vfprintf_r>:
   10544:	e1010113          	addi	sp,sp,-496
   10548:	1e112623          	sw	ra,492(sp)
   1054c:	1f212023          	sw	s2,480(sp)
   10550:	1d812423          	sw	s8,456(sp)
   10554:	1da12023          	sw	s10,448(sp)
   10558:	00058c13          	mv	s8,a1
   1055c:	00060913          	mv	s2,a2
   10560:	00d12a23          	sw	a3,20(sp)
   10564:	1e812423          	sw	s0,488(sp)
   10568:	1e912223          	sw	s1,484(sp)
   1056c:	1d312e23          	sw	s3,476(sp)
   10570:	1d412c23          	sw	s4,472(sp)
   10574:	1d512a23          	sw	s5,468(sp)
   10578:	1d612823          	sw	s6,464(sp)
   1057c:	1d712623          	sw	s7,460(sp)
   10580:	1d912223          	sw	s9,452(sp)
   10584:	1bb12e23          	sw	s11,444(sp)
   10588:	00050d13          	mv	s10,a0
   1058c:	279060ef          	jal	ra,17004 <_localeconv_r>
   10590:	00052783          	lw	a5,0(a0)
   10594:	00078513          	mv	a0,a5
   10598:	02f12823          	sw	a5,48(sp)
   1059c:	f1dff0ef          	jal	ra,104b8 <strlen>
   105a0:	02a12623          	sw	a0,44(sp)
   105a4:	0e012823          	sw	zero,240(sp)
   105a8:	0e012a23          	sw	zero,244(sp)
   105ac:	0e012c23          	sw	zero,248(sp)
   105b0:	0e012e23          	sw	zero,252(sp)
   105b4:	000d0663          	beqz	s10,105c0 <_vfprintf_r+0x7c>
   105b8:	038d2703          	lw	a4,56(s10)
   105bc:	0c0708e3          	beqz	a4,10e8c <_vfprintf_r+0x948>
   105c0:	00cc1683          	lh	a3,12(s8)
   105c4:	01069713          	slli	a4,a3,0x10
   105c8:	01269793          	slli	a5,a3,0x12
   105cc:	01075713          	srli	a4,a4,0x10
   105d0:	0207ca63          	bltz	a5,10604 <_vfprintf_r+0xc0>
   105d4:	00002737          	lui	a4,0x2
   105d8:	064c2603          	lw	a2,100(s8)
   105dc:	00e6e733          	or	a4,a3,a4
   105e0:	01071713          	slli	a4,a4,0x10
   105e4:	ffffe6b7          	lui	a3,0xffffe
   105e8:	41075713          	srai	a4,a4,0x10
   105ec:	fff68693          	addi	a3,a3,-1 # ffffdfff <__BSS_END__+0xfffd702f>
   105f0:	00d676b3          	and	a3,a2,a3
   105f4:	00ec1623          	sh	a4,12(s8)
   105f8:	01071713          	slli	a4,a4,0x10
   105fc:	06dc2223          	sw	a3,100(s8)
   10600:	01075713          	srli	a4,a4,0x10
   10604:	00877693          	andi	a3,a4,8
   10608:	2e068863          	beqz	a3,108f8 <_vfprintf_r+0x3b4>
   1060c:	010c2683          	lw	a3,16(s8)
   10610:	2e068463          	beqz	a3,108f8 <_vfprintf_r+0x3b4>
   10614:	01a77713          	andi	a4,a4,26
   10618:	00a00693          	li	a3,10
   1061c:	30d70063          	beq	a4,a3,1091c <_vfprintf_r+0x3d8>
   10620:	10c10793          	addi	a5,sp,268
   10624:	00025737          	lui	a4,0x25
   10628:	0ef12223          	sw	a5,228(sp)
   1062c:	00078893          	mv	a7,a5
   10630:	84870793          	addi	a5,a4,-1976 # 24848 <__clzsi2+0xac>
   10634:	00025737          	lui	a4,0x25
   10638:	00f12c23          	sw	a5,24(sp)
   1063c:	00090b13          	mv	s6,s2
   10640:	9c470793          	addi	a5,a4,-1596 # 249c4 <zeroes.4484>
   10644:	00f12423          	sw	a5,8(sp)
   10648:	000b4783          	lbu	a5,0(s6)
   1064c:	0e012623          	sw	zero,236(sp)
   10650:	0e012423          	sw	zero,232(sp)
   10654:	02012023          	sw	zero,32(sp)
   10658:	02012a23          	sw	zero,52(sp)
   1065c:	02012c23          	sw	zero,56(sp)
   10660:	02012e23          	sw	zero,60(sp)
   10664:	04012423          	sw	zero,72(sp)
   10668:	04012623          	sw	zero,76(sp)
   1066c:	00012623          	sw	zero,12(sp)
   10670:	22078663          	beqz	a5,1089c <_vfprintf_r+0x358>
   10674:	000b0413          	mv	s0,s6
   10678:	02500693          	li	a3,37
   1067c:	30d78a63          	beq	a5,a3,10990 <_vfprintf_r+0x44c>
   10680:	00144783          	lbu	a5,1(s0)
   10684:	00140413          	addi	s0,s0,1
   10688:	fe079ae3          	bnez	a5,1067c <_vfprintf_r+0x138>
   1068c:	416404b3          	sub	s1,s0,s6
   10690:	21640663          	beq	s0,s6,1089c <_vfprintf_r+0x358>
   10694:	0ec12683          	lw	a3,236(sp)
   10698:	0e812783          	lw	a5,232(sp)
   1069c:	0168a023          	sw	s6,0(a7)
   106a0:	009686b3          	add	a3,a3,s1
   106a4:	00178793          	addi	a5,a5,1
   106a8:	0098a223          	sw	s1,4(a7)
   106ac:	0ed12623          	sw	a3,236(sp)
   106b0:	0ef12423          	sw	a5,232(sp)
   106b4:	00700693          	li	a3,7
   106b8:	00888893          	addi	a7,a7,8
   106bc:	2ef6c263          	blt	a3,a5,109a0 <_vfprintf_r+0x45c>
   106c0:	00c12703          	lw	a4,12(sp)
   106c4:	00044783          	lbu	a5,0(s0)
   106c8:	00970733          	add	a4,a4,s1
   106cc:	00e12623          	sw	a4,12(sp)
   106d0:	1c078663          	beqz	a5,1089c <_vfprintf_r+0x358>
   106d4:	00144483          	lbu	s1,1(s0)
   106d8:	0c0103a3          	sb	zero,199(sp)
   106dc:	00140413          	addi	s0,s0,1
   106e0:	fff00d93          	li	s11,-1
   106e4:	00000993          	li	s3,0
   106e8:	00000a13          	li	s4,0
   106ec:	05a00913          	li	s2,90
   106f0:	00900a93          	li	s5,9
   106f4:	02a00b93          	li	s7,42
   106f8:	00088c93          	mv	s9,a7
   106fc:	00140413          	addi	s0,s0,1
   10700:	fe048793          	addi	a5,s1,-32
   10704:	04f96463          	bltu	s2,a5,1074c <_vfprintf_r+0x208>
   10708:	01812703          	lw	a4,24(sp)
   1070c:	00279793          	slli	a5,a5,0x2
   10710:	00e787b3          	add	a5,a5,a4
   10714:	0007a783          	lw	a5,0(a5)
   10718:	00078067          	jr	a5
   1071c:	00000993          	li	s3,0
   10720:	fd048693          	addi	a3,s1,-48
   10724:	00044483          	lbu	s1,0(s0)
   10728:	00299793          	slli	a5,s3,0x2
   1072c:	013787b3          	add	a5,a5,s3
   10730:	00179793          	slli	a5,a5,0x1
   10734:	00f689b3          	add	s3,a3,a5
   10738:	fd048693          	addi	a3,s1,-48
   1073c:	00140413          	addi	s0,s0,1
   10740:	fedaf2e3          	bgeu	s5,a3,10724 <_vfprintf_r+0x1e0>
   10744:	fe048793          	addi	a5,s1,-32
   10748:	fcf970e3          	bgeu	s2,a5,10708 <_vfprintf_r+0x1c4>
   1074c:	000c8893          	mv	a7,s9
   10750:	14048663          	beqz	s1,1089c <_vfprintf_r+0x358>
   10754:	14910623          	sb	s1,332(sp)
   10758:	0c0103a3          	sb	zero,199(sp)
   1075c:	00100a93          	li	s5,1
   10760:	00100c93          	li	s9,1
   10764:	14c10b13          	addi	s6,sp,332
   10768:	00012823          	sw	zero,16(sp)
   1076c:	00000d93          	li	s11,0
   10770:	02012423          	sw	zero,40(sp)
   10774:	02012223          	sw	zero,36(sp)
   10778:	00012e23          	sw	zero,28(sp)
   1077c:	002a7b93          	andi	s7,s4,2
   10780:	000b8463          	beqz	s7,10788 <_vfprintf_r+0x244>
   10784:	002a8a93          	addi	s5,s5,2
   10788:	084a7913          	andi	s2,s4,132
   1078c:	0ec12783          	lw	a5,236(sp)
   10790:	00091663          	bnez	s2,1079c <_vfprintf_r+0x258>
   10794:	41598833          	sub	a6,s3,s5
   10798:	730046e3          	bgtz	a6,116c4 <_vfprintf_r+0x1180>
   1079c:	0c714683          	lbu	a3,199(sp)
   107a0:	02068a63          	beqz	a3,107d4 <_vfprintf_r+0x290>
   107a4:	0e812683          	lw	a3,232(sp)
   107a8:	0c710613          	addi	a2,sp,199
   107ac:	00c8a023          	sw	a2,0(a7)
   107b0:	00178793          	addi	a5,a5,1
   107b4:	00100613          	li	a2,1
   107b8:	00168693          	addi	a3,a3,1
   107bc:	00c8a223          	sw	a2,4(a7)
   107c0:	0ef12623          	sw	a5,236(sp)
   107c4:	0ed12423          	sw	a3,232(sp)
   107c8:	00700613          	li	a2,7
   107cc:	00888893          	addi	a7,a7,8
   107d0:	54d64263          	blt	a2,a3,10d14 <_vfprintf_r+0x7d0>
   107d4:	020b8c63          	beqz	s7,1080c <_vfprintf_r+0x2c8>
   107d8:	0e812683          	lw	a3,232(sp)
   107dc:	0c810613          	addi	a2,sp,200
   107e0:	00c8a023          	sw	a2,0(a7)
   107e4:	00278793          	addi	a5,a5,2
   107e8:	00200613          	li	a2,2
   107ec:	00168693          	addi	a3,a3,1
   107f0:	00c8a223          	sw	a2,4(a7)
   107f4:	0ef12623          	sw	a5,236(sp)
   107f8:	0ed12423          	sw	a3,232(sp)
   107fc:	00700613          	li	a2,7
   10800:	00888893          	addi	a7,a7,8
   10804:	00d65463          	bge	a2,a3,1080c <_vfprintf_r+0x2c8>
   10808:	7ad0006f          	j	117b4 <_vfprintf_r+0x1270>
   1080c:	08000693          	li	a3,128
   10810:	3ed90ee3          	beq	s2,a3,1140c <_vfprintf_r+0xec8>
   10814:	419d8db3          	sub	s11,s11,s9
   10818:	4bb04ae3          	bgtz	s11,114cc <_vfprintf_r+0xf88>
   1081c:	100a7693          	andi	a3,s4,256
   10820:	2a0698e3          	bnez	a3,112d0 <_vfprintf_r+0xd8c>
   10824:	0e812703          	lw	a4,232(sp)
   10828:	019787b3          	add	a5,a5,s9
   1082c:	0168a023          	sw	s6,0(a7)
   10830:	00170713          	addi	a4,a4,1
   10834:	0198a223          	sw	s9,4(a7)
   10838:	0ef12623          	sw	a5,236(sp)
   1083c:	0ee12423          	sw	a4,232(sp)
   10840:	00700693          	li	a3,7
   10844:	56e6c863          	blt	a3,a4,10db4 <_vfprintf_r+0x870>
   10848:	00888893          	addi	a7,a7,8
   1084c:	004a7a13          	andi	s4,s4,4
   10850:	000a0663          	beqz	s4,1085c <_vfprintf_r+0x318>
   10854:	415984b3          	sub	s1,s3,s5
   10858:	56904e63          	bgtz	s1,10dd4 <_vfprintf_r+0x890>
   1085c:	0159d463          	bge	s3,s5,10864 <_vfprintf_r+0x320>
   10860:	000a8993          	mv	s3,s5
   10864:	00c12703          	lw	a4,12(sp)
   10868:	01370733          	add	a4,a4,s3
   1086c:	00e12623          	sw	a4,12(sp)
   10870:	500798e3          	bnez	a5,11580 <_vfprintf_r+0x103c>
   10874:	01012783          	lw	a5,16(sp)
   10878:	0e012423          	sw	zero,232(sp)
   1087c:	00078863          	beqz	a5,1088c <_vfprintf_r+0x348>
   10880:	01012583          	lw	a1,16(sp)
   10884:	000d0513          	mv	a0,s10
   10888:	2ac030ef          	jal	ra,13b34 <_free_r>
   1088c:	10c10893          	addi	a7,sp,268
   10890:	00040b13          	mv	s6,s0
   10894:	000b4783          	lbu	a5,0(s6)
   10898:	dc079ee3          	bnez	a5,10674 <_vfprintf_r+0x130>
   1089c:	0ec12783          	lw	a5,236(sp)
   108a0:	00078463          	beqz	a5,108a8 <_vfprintf_r+0x364>
   108a4:	3450106f          	j	123e8 <_vfprintf_r+0x1ea4>
   108a8:	00cc5783          	lhu	a5,12(s8)
   108ac:	0407f793          	andi	a5,a5,64
   108b0:	00078463          	beqz	a5,108b8 <_vfprintf_r+0x374>
   108b4:	2500206f          	j	12b04 <_vfprintf_r+0x25c0>
   108b8:	1ec12083          	lw	ra,492(sp)
   108bc:	1e812403          	lw	s0,488(sp)
   108c0:	00c12503          	lw	a0,12(sp)
   108c4:	1e412483          	lw	s1,484(sp)
   108c8:	1e012903          	lw	s2,480(sp)
   108cc:	1dc12983          	lw	s3,476(sp)
   108d0:	1d812a03          	lw	s4,472(sp)
   108d4:	1d412a83          	lw	s5,468(sp)
   108d8:	1d012b03          	lw	s6,464(sp)
   108dc:	1cc12b83          	lw	s7,460(sp)
   108e0:	1c812c03          	lw	s8,456(sp)
   108e4:	1c412c83          	lw	s9,452(sp)
   108e8:	1c012d03          	lw	s10,448(sp)
   108ec:	1bc12d83          	lw	s11,444(sp)
   108f0:	1f010113          	addi	sp,sp,496
   108f4:	00008067          	ret
   108f8:	000c0593          	mv	a1,s8
   108fc:	000d0513          	mv	a0,s10
   10900:	7d4020ef          	jal	ra,130d4 <__swsetup_r>
   10904:	00050463          	beqz	a0,1090c <_vfprintf_r+0x3c8>
   10908:	1fc0206f          	j	12b04 <_vfprintf_r+0x25c0>
   1090c:	00cc5703          	lhu	a4,12(s8)
   10910:	00a00693          	li	a3,10
   10914:	01a77713          	andi	a4,a4,26
   10918:	d0d714e3          	bne	a4,a3,10620 <_vfprintf_r+0xdc>
   1091c:	00ec1703          	lh	a4,14(s8)
   10920:	d00740e3          	bltz	a4,10620 <_vfprintf_r+0xdc>
   10924:	01412683          	lw	a3,20(sp)
   10928:	00090613          	mv	a2,s2
   1092c:	000c0593          	mv	a1,s8
   10930:	000d0513          	mv	a0,s10
   10934:	6e0020ef          	jal	ra,13014 <__sbprintf>
   10938:	00a12623          	sw	a0,12(sp)
   1093c:	f7dff06f          	j	108b8 <_vfprintf_r+0x374>
   10940:	000d0513          	mv	a0,s10
   10944:	6c0060ef          	jal	ra,17004 <_localeconv_r>
   10948:	00452783          	lw	a5,4(a0)
   1094c:	00078513          	mv	a0,a5
   10950:	04f12623          	sw	a5,76(sp)
   10954:	b65ff0ef          	jal	ra,104b8 <strlen>
   10958:	00050793          	mv	a5,a0
   1095c:	000d0513          	mv	a0,s10
   10960:	00078493          	mv	s1,a5
   10964:	04f12423          	sw	a5,72(sp)
   10968:	69c060ef          	jal	ra,17004 <_localeconv_r>
   1096c:	00852783          	lw	a5,8(a0)
   10970:	02f12e23          	sw	a5,60(sp)
   10974:	00048463          	beqz	s1,1097c <_vfprintf_r+0x438>
   10978:	14c0106f          	j	11ac4 <_vfprintf_r+0x1580>
   1097c:	00044483          	lbu	s1,0(s0)
   10980:	d7dff06f          	j	106fc <_vfprintf_r+0x1b8>
   10984:	00044483          	lbu	s1,0(s0)
   10988:	020a6a13          	ori	s4,s4,32
   1098c:	d71ff06f          	j	106fc <_vfprintf_r+0x1b8>
   10990:	416404b3          	sub	s1,s0,s6
   10994:	d16410e3          	bne	s0,s6,10694 <_vfprintf_r+0x150>
   10998:	00044783          	lbu	a5,0(s0)
   1099c:	d35ff06f          	j	106d0 <_vfprintf_r+0x18c>
   109a0:	0e410613          	addi	a2,sp,228
   109a4:	000c0593          	mv	a1,s8
   109a8:	000d0513          	mv	a0,s10
   109ac:	15d0b0ef          	jal	ra,1c308 <__sprint_r>
   109b0:	ee051ce3          	bnez	a0,108a8 <_vfprintf_r+0x364>
   109b4:	10c10893          	addi	a7,sp,268
   109b8:	d09ff06f          	j	106c0 <_vfprintf_r+0x17c>
   109bc:	008a7793          	andi	a5,s4,8
   109c0:	000c8893          	mv	a7,s9
   109c4:	00078463          	beqz	a5,109cc <_vfprintf_r+0x488>
   109c8:	14c0106f          	j	11b14 <_vfprintf_r+0x15d0>
   109cc:	01412783          	lw	a5,20(sp)
   109d0:	0b010513          	addi	a0,sp,176
   109d4:	01912823          	sw	s9,16(sp)
   109d8:	00778793          	addi	a5,a5,7
   109dc:	ff87f793          	andi	a5,a5,-8
   109e0:	0007a583          	lw	a1,0(a5)
   109e4:	0047a603          	lw	a2,4(a5)
   109e8:	00878793          	addi	a5,a5,8
   109ec:	00f12a23          	sw	a5,20(sp)
   109f0:	798130ef          	jal	ra,24188 <__extenddftf2>
   109f4:	0b012783          	lw	a5,176(sp)
   109f8:	01012883          	lw	a7,16(sp)
   109fc:	0ef12823          	sw	a5,240(sp)
   10a00:	0b412783          	lw	a5,180(sp)
   10a04:	0ef12a23          	sw	a5,244(sp)
   10a08:	0b812783          	lw	a5,184(sp)
   10a0c:	0ef12c23          	sw	a5,248(sp)
   10a10:	0bc12783          	lw	a5,188(sp)
   10a14:	0ef12e23          	sw	a5,252(sp)
   10a18:	0f010513          	addi	a0,sp,240
   10a1c:	01112823          	sw	a7,16(sp)
   10a20:	578060ef          	jal	ra,16f98 <_ldcheck>
   10a24:	0ca12623          	sw	a0,204(sp)
   10a28:	00200793          	li	a5,2
   10a2c:	01012883          	lw	a7,16(sp)
   10a30:	00f51463          	bne	a0,a5,10a38 <_vfprintf_r+0x4f4>
   10a34:	51c0106f          	j	11f50 <_vfprintf_r+0x1a0c>
   10a38:	00100793          	li	a5,1
   10a3c:	00f51463          	bne	a0,a5,10a44 <_vfprintf_r+0x500>
   10a40:	6640106f          	j	120a4 <_vfprintf_r+0x1b60>
   10a44:	06100793          	li	a5,97
   10a48:	00f49463          	bne	s1,a5,10a50 <_vfprintf_r+0x50c>
   10a4c:	1e40206f          	j	12c30 <_vfprintf_r+0x26ec>
   10a50:	04100793          	li	a5,65
   10a54:	00f49463          	bne	s1,a5,10a5c <_vfprintf_r+0x518>
   10a58:	1b10106f          	j	12408 <_vfprintf_r+0x1ec4>
   10a5c:	fdf4fb93          	andi	s7,s1,-33
   10a60:	fff00793          	li	a5,-1
   10a64:	05712223          	sw	s7,68(sp)
   10a68:	00fd9463          	bne	s11,a5,10a70 <_vfprintf_r+0x52c>
   10a6c:	2a00206f          	j	12d0c <_vfprintf_r+0x27c8>
   10a70:	04700793          	li	a5,71
   10a74:	00fb9463          	bne	s7,a5,10a7c <_vfprintf_r+0x538>
   10a78:	2000206f          	j	12c78 <_vfprintf_r+0x2734>
   10a7c:	0fc12303          	lw	t1,252(sp)
   10a80:	03412423          	sw	s4,40(sp)
   10a84:	0f012e03          	lw	t3,240(sp)
   10a88:	0f412e83          	lw	t4,244(sp)
   10a8c:	0f812f03          	lw	t5,248(sp)
   10a90:	100a6793          	ori	a5,s4,256
   10a94:	00035463          	bgez	t1,10a9c <_vfprintf_r+0x558>
   10a98:	4080206f          	j	12ea0 <_vfprintf_r+0x295c>
   10a9c:	04012c23          	sw	zero,88(sp)
   10aa0:	00078a13          	mv	s4,a5
   10aa4:	00012823          	sw	zero,16(sp)
   10aa8:	04600793          	li	a5,70
   10aac:	00fb9463          	bne	s7,a5,10ab4 <_vfprintf_r+0x570>
   10ab0:	6b90106f          	j	12968 <_vfprintf_r+0x2424>
   10ab4:	04500793          	li	a5,69
   10ab8:	05112823          	sw	a7,80(sp)
   10abc:	00fb8463          	beq	s7,a5,10ac4 <_vfprintf_r+0x580>
   10ac0:	6290106f          	j	128e8 <_vfprintf_r+0x23a4>
   10ac4:	001d8913          	addi	s2,s11,1
   10ac8:	0b010a93          	addi	s5,sp,176
   10acc:	00090693          	mv	a3,s2
   10ad0:	0dc10813          	addi	a6,sp,220
   10ad4:	0d010793          	addi	a5,sp,208
   10ad8:	0cc10713          	addi	a4,sp,204
   10adc:	00200613          	li	a2,2
   10ae0:	000a8593          	mv	a1,s5
   10ae4:	000d0513          	mv	a0,s10
   10ae8:	0bc12823          	sw	t3,176(sp)
   10aec:	05c12023          	sw	t3,64(sp)
   10af0:	0bd12a23          	sw	t4,180(sp)
   10af4:	03d12223          	sw	t4,36(sp)
   10af8:	0be12c23          	sw	t5,184(sp)
   10afc:	03e12023          	sw	t5,32(sp)
   10b00:	0a612e23          	sw	t1,188(sp)
   10b04:	00612e23          	sw	t1,28(sp)
   10b08:	1f8050ef          	jal	ra,15d00 <_ldtoa_r>
   10b0c:	01c12303          	lw	t1,28(sp)
   10b10:	02012f03          	lw	t5,32(sp)
   10b14:	02412e83          	lw	t4,36(sp)
   10b18:	04012e03          	lw	t3,64(sp)
   10b1c:	05012883          	lw	a7,80(sp)
   10b20:	00050b13          	mv	s6,a0
   10b24:	01250933          	add	s2,a0,s2
   10b28:	0a010c93          	addi	s9,sp,160
   10b2c:	000c8593          	mv	a1,s9
   10b30:	000a8513          	mv	a0,s5
   10b34:	01112e23          	sw	a7,28(sp)
   10b38:	0bc12823          	sw	t3,176(sp)
   10b3c:	0bd12a23          	sw	t4,180(sp)
   10b40:	0be12c23          	sw	t5,184(sp)
   10b44:	0a612e23          	sw	t1,188(sp)
   10b48:	0a012023          	sw	zero,160(sp)
   10b4c:	0a012223          	sw	zero,164(sp)
   10b50:	0a012423          	sw	zero,168(sp)
   10b54:	0a012623          	sw	zero,172(sp)
   10b58:	73c100ef          	jal	ra,21294 <__eqtf2>
   10b5c:	01c12883          	lw	a7,28(sp)
   10b60:	00090713          	mv	a4,s2
   10b64:	02050263          	beqz	a0,10b88 <_vfprintf_r+0x644>
   10b68:	0dc12703          	lw	a4,220(sp)
   10b6c:	01277e63          	bgeu	a4,s2,10b88 <_vfprintf_r+0x644>
   10b70:	03000693          	li	a3,48
   10b74:	00170793          	addi	a5,a4,1
   10b78:	0cf12e23          	sw	a5,220(sp)
   10b7c:	00d70023          	sb	a3,0(a4)
   10b80:	0dc12703          	lw	a4,220(sp)
   10b84:	ff2768e3          	bltu	a4,s2,10b74 <_vfprintf_r+0x630>
   10b88:	416707b3          	sub	a5,a4,s6
   10b8c:	02f12023          	sw	a5,32(sp)
   10b90:	0cc12703          	lw	a4,204(sp)
   10b94:	04700793          	li	a5,71
   10b98:	00e12e23          	sw	a4,28(sp)
   10b9c:	04412703          	lw	a4,68(sp)
   10ba0:	00f71463          	bne	a4,a5,10ba8 <_vfprintf_r+0x664>
   10ba4:	45d0106f          	j	12800 <_vfprintf_r+0x22bc>
   10ba8:	04412703          	lw	a4,68(sp)
   10bac:	04600793          	li	a5,70
   10bb0:	00f71463          	bne	a4,a5,10bb8 <_vfprintf_r+0x674>
   10bb4:	69d0106f          	j	12a50 <_vfprintf_r+0x250c>
   10bb8:	01c12783          	lw	a5,28(sp)
   10bbc:	04412703          	lw	a4,68(sp)
   10bc0:	04100613          	li	a2,65
   10bc4:	fff78a93          	addi	s5,a5,-1
   10bc8:	0d512623          	sw	s5,204(sp)
   10bcc:	0ff4f793          	andi	a5,s1,255
   10bd0:	00000693          	li	a3,0
   10bd4:	00c71863          	bne	a4,a2,10be4 <_vfprintf_r+0x6a0>
   10bd8:	00f78793          	addi	a5,a5,15
   10bdc:	0ff7f793          	andi	a5,a5,255
   10be0:	00100693          	li	a3,1
   10be4:	0cf10a23          	sb	a5,212(sp)
   10be8:	02b00793          	li	a5,43
   10bec:	000ada63          	bgez	s5,10c00 <_vfprintf_r+0x6bc>
   10bf0:	01c12783          	lw	a5,28(sp)
   10bf4:	00100a93          	li	s5,1
   10bf8:	40fa8ab3          	sub	s5,s5,a5
   10bfc:	02d00793          	li	a5,45
   10c00:	0cf10aa3          	sb	a5,213(sp)
   10c04:	00900793          	li	a5,9
   10c08:	0157c463          	blt	a5,s5,10c10 <_vfprintf_r+0x6cc>
   10c0c:	2b40206f          	j	12ec0 <_vfprintf_r+0x297c>
   10c10:	0e310b93          	addi	s7,sp,227
   10c14:	000b8c93          	mv	s9,s7
   10c18:	06300a13          	li	s4,99
   10c1c:	00812e23          	sw	s0,28(sp)
   10c20:	00088d93          	mv	s11,a7
   10c24:	00a00593          	li	a1,10
   10c28:	000a8513          	mv	a0,s5
   10c2c:	341130ef          	jal	ra,2476c <__modsi3>
   10c30:	03050793          	addi	a5,a0,48
   10c34:	fefc8fa3          	sb	a5,-1(s9)
   10c38:	000a8513          	mv	a0,s5
   10c3c:	00a00593          	li	a1,10
   10c40:	000a8413          	mv	s0,s5
   10c44:	2a5130ef          	jal	ra,246e8 <__divsi3>
   10c48:	000c8913          	mv	s2,s9
   10c4c:	00050a93          	mv	s5,a0
   10c50:	fffc8c93          	addi	s9,s9,-1
   10c54:	fc8a48e3          	blt	s4,s0,10c24 <_vfprintf_r+0x6e0>
   10c58:	03050613          	addi	a2,a0,48
   10c5c:	0ff67613          	andi	a2,a2,255
   10c60:	ffe90793          	addi	a5,s2,-2
   10c64:	fecc8fa3          	sb	a2,-1(s9)
   10c68:	01c12403          	lw	s0,28(sp)
   10c6c:	000d8893          	mv	a7,s11
   10c70:	0177e463          	bltu	a5,s7,10c78 <_vfprintf_r+0x734>
   10c74:	37c0206f          	j	12ff0 <_vfprintf_r+0x2aac>
   10c78:	0d610693          	addi	a3,sp,214
   10c7c:	0080006f          	j	10c84 <_vfprintf_r+0x740>
   10c80:	0007c603          	lbu	a2,0(a5)
   10c84:	00c68023          	sb	a2,0(a3)
   10c88:	00178793          	addi	a5,a5,1
   10c8c:	00168693          	addi	a3,a3,1
   10c90:	ff7798e3          	bne	a5,s7,10c80 <_vfprintf_r+0x73c>
   10c94:	0e510793          	addi	a5,sp,229
   10c98:	412787b3          	sub	a5,a5,s2
   10c9c:	0d610713          	addi	a4,sp,214
   10ca0:	00f707b3          	add	a5,a4,a5
   10ca4:	0d410693          	addi	a3,sp,212
   10ca8:	40d787b3          	sub	a5,a5,a3
   10cac:	02f12c23          	sw	a5,56(sp)
   10cb0:	02012703          	lw	a4,32(sp)
   10cb4:	03812683          	lw	a3,56(sp)
   10cb8:	00100793          	li	a5,1
   10cbc:	00d70cb3          	add	s9,a4,a3
   10cc0:	00e7c463          	blt	a5,a4,10cc8 <_vfprintf_r+0x784>
   10cc4:	29c0206f          	j	12f60 <_vfprintf_r+0x2a1c>
   10cc8:	02c12783          	lw	a5,44(sp)
   10ccc:	00fc8cb3          	add	s9,s9,a5
   10cd0:	02812783          	lw	a5,40(sp)
   10cd4:	fffcca93          	not	s5,s9
   10cd8:	41fada93          	srai	s5,s5,0x1f
   10cdc:	bff7fa13          	andi	s4,a5,-1025
   10ce0:	100a6a13          	ori	s4,s4,256
   10ce4:	015cfab3          	and	s5,s9,s5
   10ce8:	02012423          	sw	zero,40(sp)
   10cec:	02012223          	sw	zero,36(sp)
   10cf0:	00012e23          	sw	zero,28(sp)
   10cf4:	05812783          	lw	a5,88(sp)
   10cf8:	00079463          	bnez	a5,10d00 <_vfprintf_r+0x7bc>
   10cfc:	3790106f          	j	12874 <_vfprintf_r+0x2330>
   10d00:	02d00793          	li	a5,45
   10d04:	0cf103a3          	sb	a5,199(sp)
   10d08:	00000d93          	li	s11,0
   10d0c:	001a8a93          	addi	s5,s5,1
   10d10:	a6dff06f          	j	1077c <_vfprintf_r+0x238>
   10d14:	0e410613          	addi	a2,sp,228
   10d18:	000c0593          	mv	a1,s8
   10d1c:	000d0513          	mv	a0,s10
   10d20:	5e80b0ef          	jal	ra,1c308 <__sprint_r>
   10d24:	060518e3          	bnez	a0,11594 <_vfprintf_r+0x1050>
   10d28:	0ec12783          	lw	a5,236(sp)
   10d2c:	10c10893          	addi	a7,sp,268
   10d30:	aa5ff06f          	j	107d4 <_vfprintf_r+0x290>
   10d34:	03012683          	lw	a3,48(sp)
   10d38:	02c12703          	lw	a4,44(sp)
   10d3c:	00700613          	li	a2,7
   10d40:	00d8a023          	sw	a3,0(a7)
   10d44:	0e812683          	lw	a3,232(sp)
   10d48:	00f707b3          	add	a5,a4,a5
   10d4c:	00e8a223          	sw	a4,4(a7)
   10d50:	00168693          	addi	a3,a3,1
   10d54:	0ef12623          	sw	a5,236(sp)
   10d58:	0ed12423          	sw	a3,232(sp)
   10d5c:	00888893          	addi	a7,a7,8
   10d60:	02d65463          	bge	a2,a3,10d88 <_vfprintf_r+0x844>
   10d64:	0e410613          	addi	a2,sp,228
   10d68:	000c0593          	mv	a1,s8
   10d6c:	000d0513          	mv	a0,s10
   10d70:	5980b0ef          	jal	ra,1c308 <__sprint_r>
   10d74:	020510e3          	bnez	a0,11594 <_vfprintf_r+0x1050>
   10d78:	0cc12583          	lw	a1,204(sp)
   10d7c:	0ec12783          	lw	a5,236(sp)
   10d80:	0e812683          	lw	a3,232(sp)
   10d84:	10c10893          	addi	a7,sp,268
   10d88:	0005d463          	bgez	a1,10d90 <_vfprintf_r+0x84c>
   10d8c:	5850106f          	j	12b10 <_vfprintf_r+0x25cc>
   10d90:	02012703          	lw	a4,32(sp)
   10d94:	00168693          	addi	a3,a3,1
   10d98:	0168a023          	sw	s6,0(a7)
   10d9c:	00f707b3          	add	a5,a4,a5
   10da0:	00e8a223          	sw	a4,4(a7)
   10da4:	0ef12623          	sw	a5,236(sp)
   10da8:	0ed12423          	sw	a3,232(sp)
   10dac:	00700713          	li	a4,7
   10db0:	a8d75ce3          	bge	a4,a3,10848 <_vfprintf_r+0x304>
   10db4:	0e410613          	addi	a2,sp,228
   10db8:	000c0593          	mv	a1,s8
   10dbc:	000d0513          	mv	a0,s10
   10dc0:	5480b0ef          	jal	ra,1c308 <__sprint_r>
   10dc4:	7c051863          	bnez	a0,11594 <_vfprintf_r+0x1050>
   10dc8:	0ec12783          	lw	a5,236(sp)
   10dcc:	10c10893          	addi	a7,sp,268
   10dd0:	a7dff06f          	j	1084c <_vfprintf_r+0x308>
   10dd4:	01000693          	li	a3,16
   10dd8:	0e812703          	lw	a4,232(sp)
   10ddc:	0096c463          	blt	a3,s1,10de4 <_vfprintf_r+0x8a0>
   10de0:	5190106f          	j	12af8 <_vfprintf_r+0x25b4>
   10de4:	000256b7          	lui	a3,0x25
   10de8:	9b468e93          	addi	t4,a3,-1612 # 249b4 <blanks.4483>
   10dec:	01000913          	li	s2,16
   10df0:	00700a13          	li	s4,7
   10df4:	000e8b13          	mv	s6,t4
   10df8:	00c0006f          	j	10e04 <_vfprintf_r+0x8c0>
   10dfc:	ff048493          	addi	s1,s1,-16
   10e00:	04995663          	bge	s2,s1,10e4c <_vfprintf_r+0x908>
   10e04:	01078793          	addi	a5,a5,16
   10e08:	00170713          	addi	a4,a4,1
   10e0c:	0168a023          	sw	s6,0(a7)
   10e10:	0128a223          	sw	s2,4(a7)
   10e14:	0ef12623          	sw	a5,236(sp)
   10e18:	0ee12423          	sw	a4,232(sp)
   10e1c:	00888893          	addi	a7,a7,8
   10e20:	fcea5ee3          	bge	s4,a4,10dfc <_vfprintf_r+0x8b8>
   10e24:	0e410613          	addi	a2,sp,228
   10e28:	000c0593          	mv	a1,s8
   10e2c:	000d0513          	mv	a0,s10
   10e30:	4d80b0ef          	jal	ra,1c308 <__sprint_r>
   10e34:	76051063          	bnez	a0,11594 <_vfprintf_r+0x1050>
   10e38:	ff048493          	addi	s1,s1,-16
   10e3c:	0ec12783          	lw	a5,236(sp)
   10e40:	0e812703          	lw	a4,232(sp)
   10e44:	10c10893          	addi	a7,sp,268
   10e48:	fa994ee3          	blt	s2,s1,10e04 <_vfprintf_r+0x8c0>
   10e4c:	000b0e93          	mv	t4,s6
   10e50:	009787b3          	add	a5,a5,s1
   10e54:	00170713          	addi	a4,a4,1
   10e58:	01d8a023          	sw	t4,0(a7)
   10e5c:	0098a223          	sw	s1,4(a7)
   10e60:	0ef12623          	sw	a5,236(sp)
   10e64:	0ee12423          	sw	a4,232(sp)
   10e68:	00700693          	li	a3,7
   10e6c:	9ee6d8e3          	bge	a3,a4,1085c <_vfprintf_r+0x318>
   10e70:	0e410613          	addi	a2,sp,228
   10e74:	000c0593          	mv	a1,s8
   10e78:	000d0513          	mv	a0,s10
   10e7c:	48c0b0ef          	jal	ra,1c308 <__sprint_r>
   10e80:	70051a63          	bnez	a0,11594 <_vfprintf_r+0x1050>
   10e84:	0ec12783          	lw	a5,236(sp)
   10e88:	9d5ff06f          	j	1085c <_vfprintf_r+0x318>
   10e8c:	000d0513          	mv	a0,s10
   10e90:	2d9020ef          	jal	ra,13968 <__sinit>
   10e94:	f2cff06f          	j	105c0 <_vfprintf_r+0x7c>
   10e98:	01412703          	lw	a4,20(sp)
   10e9c:	000c8893          	mv	a7,s9
   10ea0:	0c0103a3          	sb	zero,199(sp)
   10ea4:	00072783          	lw	a5,0(a4)
   10ea8:	00470713          	addi	a4,a4,4
   10eac:	00e12a23          	sw	a4,20(sp)
   10eb0:	14f10623          	sb	a5,332(sp)
   10eb4:	00100a93          	li	s5,1
   10eb8:	00100c93          	li	s9,1
   10ebc:	14c10b13          	addi	s6,sp,332
   10ec0:	8a9ff06f          	j	10768 <_vfprintf_r+0x224>
   10ec4:	01412783          	lw	a5,20(sp)
   10ec8:	0c0103a3          	sb	zero,199(sp)
   10ecc:	000c8893          	mv	a7,s9
   10ed0:	0007ab03          	lw	s6,0(a5)
   10ed4:	00478913          	addi	s2,a5,4
   10ed8:	5a0b0ee3          	beqz	s6,11c94 <_vfprintf_r+0x1750>
   10edc:	fff00793          	li	a5,-1
   10ee0:	00fd9463          	bne	s11,a5,10ee8 <_vfprintf_r+0x9a4>
   10ee4:	1000106f          	j	11fe4 <_vfprintf_r+0x1aa0>
   10ee8:	000d8613          	mv	a2,s11
   10eec:	00000593          	li	a1,0
   10ef0:	000b0513          	mv	a0,s6
   10ef4:	01912a23          	sw	s9,20(sp)
   10ef8:	2a5060ef          	jal	ra,1799c <memchr>
   10efc:	00a12823          	sw	a0,16(sp)
   10f00:	01412883          	lw	a7,20(sp)
   10f04:	00051463          	bnez	a0,10f0c <_vfprintf_r+0x9c8>
   10f08:	31d0106f          	j	12a24 <_vfprintf_r+0x24e0>
   10f0c:	01012783          	lw	a5,16(sp)
   10f10:	01212a23          	sw	s2,20(sp)
   10f14:	00012823          	sw	zero,16(sp)
   10f18:	41678cb3          	sub	s9,a5,s6
   10f1c:	0c714783          	lbu	a5,199(sp)
   10f20:	fffcca93          	not	s5,s9
   10f24:	41fada93          	srai	s5,s5,0x1f
   10f28:	02012423          	sw	zero,40(sp)
   10f2c:	02012223          	sw	zero,36(sp)
   10f30:	00012e23          	sw	zero,28(sp)
   10f34:	015cfab3          	and	s5,s9,s5
   10f38:	00000d93          	li	s11,0
   10f3c:	840780e3          	beqz	a5,1077c <_vfprintf_r+0x238>
   10f40:	001a8a93          	addi	s5,s5,1
   10f44:	839ff06f          	j	1077c <_vfprintf_r+0x238>
   10f48:	00044483          	lbu	s1,0(s0)
   10f4c:	004a6a13          	ori	s4,s4,4
   10f50:	facff06f          	j	106fc <_vfprintf_r+0x1b8>
   10f54:	01412683          	lw	a3,20(sp)
   10f58:	020a7793          	andi	a5,s4,32
   10f5c:	000c8893          	mv	a7,s9
   10f60:	0006a703          	lw	a4,0(a3)
   10f64:	00468693          	addi	a3,a3,4
   10f68:	00d12a23          	sw	a3,20(sp)
   10f6c:	36079ee3          	bnez	a5,11ae8 <_vfprintf_r+0x15a4>
   10f70:	010a7793          	andi	a5,s4,16
   10f74:	00078463          	beqz	a5,10f7c <_vfprintf_r+0xa38>
   10f78:	05c0106f          	j	11fd4 <_vfprintf_r+0x1a90>
   10f7c:	040a7793          	andi	a5,s4,64
   10f80:	00078463          	beqz	a5,10f88 <_vfprintf_r+0xa44>
   10f84:	3fc0106f          	j	12380 <_vfprintf_r+0x1e3c>
   10f88:	200a7a13          	andi	s4,s4,512
   10f8c:	000a1463          	bnez	s4,10f94 <_vfprintf_r+0xa50>
   10f90:	0440106f          	j	11fd4 <_vfprintf_r+0x1a90>
   10f94:	00c12783          	lw	a5,12(sp)
   10f98:	00040b13          	mv	s6,s0
   10f9c:	00f70023          	sb	a5,0(a4)
   10fa0:	8f5ff06f          	j	10894 <_vfprintf_r+0x350>
   10fa4:	00044483          	lbu	s1,0(s0)
   10fa8:	06c00793          	li	a5,108
   10fac:	4cf484e3          	beq	s1,a5,11c74 <_vfprintf_r+0x1730>
   10fb0:	010a6a13          	ori	s4,s4,16
   10fb4:	f48ff06f          	j	106fc <_vfprintf_r+0x1b8>
   10fb8:	01412703          	lw	a4,20(sp)
   10fbc:	ffff87b7          	lui	a5,0xffff8
   10fc0:	8307c793          	xori	a5,a5,-2000
   10fc4:	0cf11423          	sh	a5,200(sp)
   10fc8:	00470793          	addi	a5,a4,4
   10fcc:	00f12a23          	sw	a5,20(sp)
   10fd0:	00072903          	lw	s2,0(a4)
   10fd4:	000257b7          	lui	a5,0x25
   10fd8:	81478793          	addi	a5,a5,-2028 # 24814 <__clzsi2+0x78>
   10fdc:	000c8893          	mv	a7,s9
   10fe0:	02f12a23          	sw	a5,52(sp)
   10fe4:	00000c93          	li	s9,0
   10fe8:	002a6b93          	ori	s7,s4,2
   10fec:	00200793          	li	a5,2
   10ff0:	07800493          	li	s1,120
   10ff4:	0c0103a3          	sb	zero,199(sp)
   10ff8:	fff00713          	li	a4,-1
   10ffc:	20ed8663          	beq	s11,a4,11208 <_vfprintf_r+0xcc4>
   11000:	01996733          	or	a4,s2,s9
   11004:	f7fbfa13          	andi	s4,s7,-129
   11008:	1e071e63          	bnez	a4,11204 <_vfprintf_r+0xcc0>
   1100c:	260d9463          	bnez	s11,11274 <_vfprintf_r+0xd30>
   11010:	1c079063          	bnez	a5,111d0 <_vfprintf_r+0xc8c>
   11014:	001bfc93          	andi	s9,s7,1
   11018:	1b010b13          	addi	s6,sp,432
   1101c:	280c9ce3          	bnez	s9,11ab4 <_vfprintf_r+0x1570>
   11020:	000c8a93          	mv	s5,s9
   11024:	01bcd463          	bge	s9,s11,1102c <_vfprintf_r+0xae8>
   11028:	000d8a93          	mv	s5,s11
   1102c:	0c714783          	lbu	a5,199(sp)
   11030:	00012823          	sw	zero,16(sp)
   11034:	02012423          	sw	zero,40(sp)
   11038:	02012223          	sw	zero,36(sp)
   1103c:	00012e23          	sw	zero,28(sp)
   11040:	f00790e3          	bnez	a5,10f40 <_vfprintf_r+0x9fc>
   11044:	f38ff06f          	j	1077c <_vfprintf_r+0x238>
   11048:	00044483          	lbu	s1,0(s0)
   1104c:	06800793          	li	a5,104
   11050:	42f48ae3          	beq	s1,a5,11c84 <_vfprintf_r+0x1740>
   11054:	040a6a13          	ori	s4,s4,64
   11058:	ea4ff06f          	j	106fc <_vfprintf_r+0x1b8>
   1105c:	02b00793          	li	a5,43
   11060:	00044483          	lbu	s1,0(s0)
   11064:	0cf103a3          	sb	a5,199(sp)
   11068:	e94ff06f          	j	106fc <_vfprintf_r+0x1b8>
   1106c:	00044483          	lbu	s1,0(s0)
   11070:	080a6a13          	ori	s4,s4,128
   11074:	e88ff06f          	j	106fc <_vfprintf_r+0x1b8>
   11078:	00044483          	lbu	s1,0(s0)
   1107c:	00140713          	addi	a4,s0,1
   11080:	01749463          	bne	s1,s7,11088 <_vfprintf_r+0xb44>
   11084:	72d0106f          	j	12fb0 <_vfprintf_r+0x2a6c>
   11088:	fd048693          	addi	a3,s1,-48
   1108c:	00070413          	mv	s0,a4
   11090:	00000d93          	li	s11,0
   11094:	e6dae663          	bltu	s5,a3,10700 <_vfprintf_r+0x1bc>
   11098:	00044483          	lbu	s1,0(s0)
   1109c:	002d9793          	slli	a5,s11,0x2
   110a0:	01b787b3          	add	a5,a5,s11
   110a4:	00179793          	slli	a5,a5,0x1
   110a8:	00d78db3          	add	s11,a5,a3
   110ac:	fd048693          	addi	a3,s1,-48
   110b0:	00140413          	addi	s0,s0,1
   110b4:	fedaf2e3          	bgeu	s5,a3,11098 <_vfprintf_r+0xb54>
   110b8:	e48ff06f          	j	10700 <_vfprintf_r+0x1bc>
   110bc:	01412783          	lw	a5,20(sp)
   110c0:	00044483          	lbu	s1,0(s0)
   110c4:	0007a983          	lw	s3,0(a5)
   110c8:	00478793          	addi	a5,a5,4
   110cc:	00f12a23          	sw	a5,20(sp)
   110d0:	e209d663          	bgez	s3,106fc <_vfprintf_r+0x1b8>
   110d4:	413009b3          	neg	s3,s3
   110d8:	004a6a13          	ori	s4,s4,4
   110dc:	e20ff06f          	j	106fc <_vfprintf_r+0x1b8>
   110e0:	00044483          	lbu	s1,0(s0)
   110e4:	001a6a13          	ori	s4,s4,1
   110e8:	e14ff06f          	j	106fc <_vfprintf_r+0x1b8>
   110ec:	0c714783          	lbu	a5,199(sp)
   110f0:	00044483          	lbu	s1,0(s0)
   110f4:	e0079463          	bnez	a5,106fc <_vfprintf_r+0x1b8>
   110f8:	02000793          	li	a5,32
   110fc:	0cf103a3          	sb	a5,199(sp)
   11100:	dfcff06f          	j	106fc <_vfprintf_r+0x1b8>
   11104:	000c8893          	mv	a7,s9
   11108:	010a6a13          	ori	s4,s4,16
   1110c:	020a7793          	andi	a5,s4,32
   11110:	0c078ee3          	beqz	a5,119ec <_vfprintf_r+0x14a8>
   11114:	01412783          	lw	a5,20(sp)
   11118:	00778b13          	addi	s6,a5,7
   1111c:	ff8b7b13          	andi	s6,s6,-8
   11120:	000b2903          	lw	s2,0(s6)
   11124:	004b2c83          	lw	s9,4(s6)
   11128:	008b0793          	addi	a5,s6,8
   1112c:	00f12a23          	sw	a5,20(sp)
   11130:	bffa7b93          	andi	s7,s4,-1025
   11134:	00000793          	li	a5,0
   11138:	ebdff06f          	j	10ff4 <_vfprintf_r+0xab0>
   1113c:	000c8893          	mv	a7,s9
   11140:	010a6b93          	ori	s7,s4,16
   11144:	020bf793          	andi	a5,s7,32
   11148:	0c0788e3          	beqz	a5,11a18 <_vfprintf_r+0x14d4>
   1114c:	01412783          	lw	a5,20(sp)
   11150:	00778b13          	addi	s6,a5,7
   11154:	ff8b7b13          	andi	s6,s6,-8
   11158:	008b0793          	addi	a5,s6,8
   1115c:	00f12a23          	sw	a5,20(sp)
   11160:	000b2903          	lw	s2,0(s6)
   11164:	004b2c83          	lw	s9,4(s6)
   11168:	00100793          	li	a5,1
   1116c:	e89ff06f          	j	10ff4 <_vfprintf_r+0xab0>
   11170:	00044483          	lbu	s1,0(s0)
   11174:	008a6a13          	ori	s4,s4,8
   11178:	d84ff06f          	j	106fc <_vfprintf_r+0x1b8>
   1117c:	000c8893          	mv	a7,s9
   11180:	010a6a13          	ori	s4,s4,16
   11184:	020a7793          	andi	a5,s4,32
   11188:	0c0780e3          	beqz	a5,11a48 <_vfprintf_r+0x1504>
   1118c:	01412783          	lw	a5,20(sp)
   11190:	00778b13          	addi	s6,a5,7
   11194:	ff8b7b13          	andi	s6,s6,-8
   11198:	004b2783          	lw	a5,4(s6)
   1119c:	000b2903          	lw	s2,0(s6)
   111a0:	008b0713          	addi	a4,s6,8
   111a4:	00e12a23          	sw	a4,20(sp)
   111a8:	00078c93          	mv	s9,a5
   111ac:	0c07c6e3          	bltz	a5,11a78 <_vfprintf_r+0x1534>
   111b0:	fff00793          	li	a5,-1
   111b4:	000a0b93          	mv	s7,s4
   111b8:	02fd8463          	beq	s11,a5,111e0 <_vfprintf_r+0xc9c>
   111bc:	019967b3          	or	a5,s2,s9
   111c0:	f7fa7b93          	andi	s7,s4,-129
   111c4:	00079e63          	bnez	a5,111e0 <_vfprintf_r+0xc9c>
   111c8:	020d9263          	bnez	s11,111ec <_vfprintf_r+0xca8>
   111cc:	000b8a13          	mv	s4,s7
   111d0:	00000d93          	li	s11,0
   111d4:	00000c93          	li	s9,0
   111d8:	1b010b13          	addi	s6,sp,432
   111dc:	e45ff06f          	j	11020 <_vfprintf_r+0xadc>
   111e0:	3a0c92e3          	bnez	s9,11d84 <_vfprintf_r+0x1840>
   111e4:	00900793          	li	a5,9
   111e8:	3927eee3          	bltu	a5,s2,11d84 <_vfprintf_r+0x1840>
   111ec:	03090913          	addi	s2,s2,48
   111f0:	1b2107a3          	sb	s2,431(sp)
   111f4:	000b8a13          	mv	s4,s7
   111f8:	00100c93          	li	s9,1
   111fc:	1af10b13          	addi	s6,sp,431
   11200:	e21ff06f          	j	11020 <_vfprintf_r+0xadc>
   11204:	000a0b93          	mv	s7,s4
   11208:	00100713          	li	a4,1
   1120c:	fce78ae3          	beq	a5,a4,111e0 <_vfprintf_r+0xc9c>
   11210:	00200713          	li	a4,2
   11214:	06e78c63          	beq	a5,a4,1128c <_vfprintf_r+0xd48>
   11218:	1b010b13          	addi	s6,sp,432
   1121c:	01dc9713          	slli	a4,s9,0x1d
   11220:	00797793          	andi	a5,s2,7
   11224:	00395913          	srli	s2,s2,0x3
   11228:	03078793          	addi	a5,a5,48
   1122c:	01276933          	or	s2,a4,s2
   11230:	003cdc93          	srli	s9,s9,0x3
   11234:	fefb0fa3          	sb	a5,-1(s6)
   11238:	01996733          	or	a4,s2,s9
   1123c:	000b0613          	mv	a2,s6
   11240:	fffb0b13          	addi	s6,s6,-1
   11244:	fc071ce3          	bnez	a4,1121c <_vfprintf_r+0xcd8>
   11248:	001bf693          	andi	a3,s7,1
   1124c:	06068a63          	beqz	a3,112c0 <_vfprintf_r+0xd7c>
   11250:	03000693          	li	a3,48
   11254:	06d78663          	beq	a5,a3,112c0 <_vfprintf_r+0xd7c>
   11258:	ffe60613          	addi	a2,a2,-2
   1125c:	1b010793          	addi	a5,sp,432
   11260:	fedb0fa3          	sb	a3,-1(s6)
   11264:	40c78cb3          	sub	s9,a5,a2
   11268:	000b8a13          	mv	s4,s7
   1126c:	00060b13          	mv	s6,a2
   11270:	db1ff06f          	j	11020 <_vfprintf_r+0xadc>
   11274:	00100713          	li	a4,1
   11278:	00e79463          	bne	a5,a4,11280 <_vfprintf_r+0xd3c>
   1127c:	14d0106f          	j	12bc8 <_vfprintf_r+0x2684>
   11280:	00200713          	li	a4,2
   11284:	000a0b93          	mv	s7,s4
   11288:	f8e798e3          	bne	a5,a4,11218 <_vfprintf_r+0xcd4>
   1128c:	03412683          	lw	a3,52(sp)
   11290:	1b010b13          	addi	s6,sp,432
   11294:	00f97793          	andi	a5,s2,15
   11298:	00f687b3          	add	a5,a3,a5
   1129c:	0007c703          	lbu	a4,0(a5)
   112a0:	00495913          	srli	s2,s2,0x4
   112a4:	01cc9793          	slli	a5,s9,0x1c
   112a8:	0127e933          	or	s2,a5,s2
   112ac:	004cdc93          	srli	s9,s9,0x4
   112b0:	feeb0fa3          	sb	a4,-1(s6)
   112b4:	019967b3          	or	a5,s2,s9
   112b8:	fffb0b13          	addi	s6,s6,-1
   112bc:	fc079ce3          	bnez	a5,11294 <_vfprintf_r+0xd50>
   112c0:	1b010793          	addi	a5,sp,432
   112c4:	41678cb3          	sub	s9,a5,s6
   112c8:	000b8a13          	mv	s4,s7
   112cc:	d55ff06f          	j	11020 <_vfprintf_r+0xadc>
   112d0:	06500693          	li	a3,101
   112d4:	2c96dc63          	bge	a3,s1,115ac <_vfprintf_r+0x1068>
   112d8:	0f012683          	lw	a3,240(sp)
   112dc:	0a010593          	addi	a1,sp,160
   112e0:	0b010513          	addi	a0,sp,176
   112e4:	0ad12823          	sw	a3,176(sp)
   112e8:	0f412683          	lw	a3,244(sp)
   112ec:	05112223          	sw	a7,68(sp)
   112f0:	04f12023          	sw	a5,64(sp)
   112f4:	0ad12a23          	sw	a3,180(sp)
   112f8:	0f812683          	lw	a3,248(sp)
   112fc:	0a012023          	sw	zero,160(sp)
   11300:	0a012223          	sw	zero,164(sp)
   11304:	0ad12c23          	sw	a3,184(sp)
   11308:	0fc12683          	lw	a3,252(sp)
   1130c:	0a012423          	sw	zero,168(sp)
   11310:	0a012623          	sw	zero,172(sp)
   11314:	0ad12e23          	sw	a3,188(sp)
   11318:	77d0f0ef          	jal	ra,21294 <__eqtf2>
   1131c:	04012783          	lw	a5,64(sp)
   11320:	04412883          	lw	a7,68(sp)
   11324:	4a051863          	bnez	a0,117d4 <_vfprintf_r+0x1290>
   11328:	0e812703          	lw	a4,232(sp)
   1132c:	000256b7          	lui	a3,0x25
   11330:	84468693          	addi	a3,a3,-1980 # 24844 <__clzsi2+0xa8>
   11334:	00d8a023          	sw	a3,0(a7)
   11338:	00178793          	addi	a5,a5,1
   1133c:	00100693          	li	a3,1
   11340:	00170713          	addi	a4,a4,1
   11344:	00d8a223          	sw	a3,4(a7)
   11348:	0ef12623          	sw	a5,236(sp)
   1134c:	0ee12423          	sw	a4,232(sp)
   11350:	00700693          	li	a3,7
   11354:	00888893          	addi	a7,a7,8
   11358:	3ae6c6e3          	blt	a3,a4,11f04 <_vfprintf_r+0x19c0>
   1135c:	0cc12703          	lw	a4,204(sp)
   11360:	02012683          	lw	a3,32(sp)
   11364:	72d75c63          	bge	a4,a3,11a9c <_vfprintf_r+0x1558>
   11368:	03012703          	lw	a4,48(sp)
   1136c:	02c12683          	lw	a3,44(sp)
   11370:	00888893          	addi	a7,a7,8
   11374:	fee8ac23          	sw	a4,-8(a7)
   11378:	0e812703          	lw	a4,232(sp)
   1137c:	00d787b3          	add	a5,a5,a3
   11380:	fed8ae23          	sw	a3,-4(a7)
   11384:	00170713          	addi	a4,a4,1
   11388:	0ef12623          	sw	a5,236(sp)
   1138c:	0ee12423          	sw	a4,232(sp)
   11390:	00700693          	li	a3,7
   11394:	0ce6c0e3          	blt	a3,a4,11c54 <_vfprintf_r+0x1710>
   11398:	02012703          	lw	a4,32(sp)
   1139c:	fff70493          	addi	s1,a4,-1
   113a0:	ca905663          	blez	s1,1084c <_vfprintf_r+0x308>
   113a4:	01000693          	li	a3,16
   113a8:	0e812703          	lw	a4,232(sp)
   113ac:	3696dce3          	bge	a3,s1,11f24 <_vfprintf_r+0x19e0>
   113b0:	01000913          	li	s2,16
   113b4:	00700c93          	li	s9,7
   113b8:	00c0006f          	j	113c4 <_vfprintf_r+0xe80>
   113bc:	ff048493          	addi	s1,s1,-16
   113c0:	369952e3          	bge	s2,s1,11f24 <_vfprintf_r+0x19e0>
   113c4:	00812683          	lw	a3,8(sp)
   113c8:	01078793          	addi	a5,a5,16
   113cc:	00170713          	addi	a4,a4,1
   113d0:	00d8a023          	sw	a3,0(a7)
   113d4:	0128a223          	sw	s2,4(a7)
   113d8:	0ef12623          	sw	a5,236(sp)
   113dc:	0ee12423          	sw	a4,232(sp)
   113e0:	00888893          	addi	a7,a7,8
   113e4:	fcecdce3          	bge	s9,a4,113bc <_vfprintf_r+0xe78>
   113e8:	0e410613          	addi	a2,sp,228
   113ec:	000c0593          	mv	a1,s8
   113f0:	000d0513          	mv	a0,s10
   113f4:	7150a0ef          	jal	ra,1c308 <__sprint_r>
   113f8:	18051e63          	bnez	a0,11594 <_vfprintf_r+0x1050>
   113fc:	0ec12783          	lw	a5,236(sp)
   11400:	0e812703          	lw	a4,232(sp)
   11404:	10c10893          	addi	a7,sp,268
   11408:	fb5ff06f          	j	113bc <_vfprintf_r+0xe78>
   1140c:	41598933          	sub	s2,s3,s5
   11410:	c1205263          	blez	s2,10814 <_vfprintf_r+0x2d0>
   11414:	01000613          	li	a2,16
   11418:	0e812683          	lw	a3,232(sp)
   1141c:	07265463          	bge	a2,s2,11484 <_vfprintf_r+0xf40>
   11420:	01000e13          	li	t3,16
   11424:	00700b93          	li	s7,7
   11428:	00c0006f          	j	11434 <_vfprintf_r+0xef0>
   1142c:	ff090913          	addi	s2,s2,-16
   11430:	052e5a63          	bge	t3,s2,11484 <_vfprintf_r+0xf40>
   11434:	00812703          	lw	a4,8(sp)
   11438:	01078793          	addi	a5,a5,16
   1143c:	00168693          	addi	a3,a3,1
   11440:	00e8a023          	sw	a4,0(a7)
   11444:	01c8a223          	sw	t3,4(a7)
   11448:	0ef12623          	sw	a5,236(sp)
   1144c:	0ed12423          	sw	a3,232(sp)
   11450:	00888893          	addi	a7,a7,8
   11454:	fcdbdce3          	bge	s7,a3,1142c <_vfprintf_r+0xee8>
   11458:	0e410613          	addi	a2,sp,228
   1145c:	000c0593          	mv	a1,s8
   11460:	000d0513          	mv	a0,s10
   11464:	6a50a0ef          	jal	ra,1c308 <__sprint_r>
   11468:	12051663          	bnez	a0,11594 <_vfprintf_r+0x1050>
   1146c:	01000e13          	li	t3,16
   11470:	ff090913          	addi	s2,s2,-16
   11474:	0ec12783          	lw	a5,236(sp)
   11478:	0e812683          	lw	a3,232(sp)
   1147c:	10c10893          	addi	a7,sp,268
   11480:	fb2e4ae3          	blt	t3,s2,11434 <_vfprintf_r+0xef0>
   11484:	00812703          	lw	a4,8(sp)
   11488:	012787b3          	add	a5,a5,s2
   1148c:	00168693          	addi	a3,a3,1
   11490:	00e8a023          	sw	a4,0(a7)
   11494:	0128a223          	sw	s2,4(a7)
   11498:	0ef12623          	sw	a5,236(sp)
   1149c:	0ed12423          	sw	a3,232(sp)
   114a0:	00700613          	li	a2,7
   114a4:	00888893          	addi	a7,a7,8
   114a8:	b6d65663          	bge	a2,a3,10814 <_vfprintf_r+0x2d0>
   114ac:	0e410613          	addi	a2,sp,228
   114b0:	000c0593          	mv	a1,s8
   114b4:	000d0513          	mv	a0,s10
   114b8:	6510a0ef          	jal	ra,1c308 <__sprint_r>
   114bc:	0c051c63          	bnez	a0,11594 <_vfprintf_r+0x1050>
   114c0:	0ec12783          	lw	a5,236(sp)
   114c4:	10c10893          	addi	a7,sp,268
   114c8:	b4cff06f          	j	10814 <_vfprintf_r+0x2d0>
   114cc:	01000613          	li	a2,16
   114d0:	0e812683          	lw	a3,232(sp)
   114d4:	07b65263          	bge	a2,s11,11538 <_vfprintf_r+0xff4>
   114d8:	01000b93          	li	s7,16
   114dc:	00700913          	li	s2,7
   114e0:	00c0006f          	j	114ec <_vfprintf_r+0xfa8>
   114e4:	ff0d8d93          	addi	s11,s11,-16
   114e8:	05bbd863          	bge	s7,s11,11538 <_vfprintf_r+0xff4>
   114ec:	00812703          	lw	a4,8(sp)
   114f0:	01078793          	addi	a5,a5,16
   114f4:	00168693          	addi	a3,a3,1
   114f8:	00e8a023          	sw	a4,0(a7)
   114fc:	0178a223          	sw	s7,4(a7)
   11500:	0ef12623          	sw	a5,236(sp)
   11504:	0ed12423          	sw	a3,232(sp)
   11508:	00888893          	addi	a7,a7,8
   1150c:	fcd95ce3          	bge	s2,a3,114e4 <_vfprintf_r+0xfa0>
   11510:	0e410613          	addi	a2,sp,228
   11514:	000c0593          	mv	a1,s8
   11518:	000d0513          	mv	a0,s10
   1151c:	5ed0a0ef          	jal	ra,1c308 <__sprint_r>
   11520:	06051a63          	bnez	a0,11594 <_vfprintf_r+0x1050>
   11524:	ff0d8d93          	addi	s11,s11,-16
   11528:	0ec12783          	lw	a5,236(sp)
   1152c:	0e812683          	lw	a3,232(sp)
   11530:	10c10893          	addi	a7,sp,268
   11534:	fbbbcce3          	blt	s7,s11,114ec <_vfprintf_r+0xfa8>
   11538:	00812703          	lw	a4,8(sp)
   1153c:	01b787b3          	add	a5,a5,s11
   11540:	00168693          	addi	a3,a3,1
   11544:	00e8a023          	sw	a4,0(a7)
   11548:	01b8a223          	sw	s11,4(a7)
   1154c:	0ef12623          	sw	a5,236(sp)
   11550:	0ed12423          	sw	a3,232(sp)
   11554:	00700613          	li	a2,7
   11558:	00888893          	addi	a7,a7,8
   1155c:	acd65063          	bge	a2,a3,1081c <_vfprintf_r+0x2d8>
   11560:	0e410613          	addi	a2,sp,228
   11564:	000c0593          	mv	a1,s8
   11568:	000d0513          	mv	a0,s10
   1156c:	59d0a0ef          	jal	ra,1c308 <__sprint_r>
   11570:	02051263          	bnez	a0,11594 <_vfprintf_r+0x1050>
   11574:	0ec12783          	lw	a5,236(sp)
   11578:	10c10893          	addi	a7,sp,268
   1157c:	aa0ff06f          	j	1081c <_vfprintf_r+0x2d8>
   11580:	0e410613          	addi	a2,sp,228
   11584:	000c0593          	mv	a1,s8
   11588:	000d0513          	mv	a0,s10
   1158c:	57d0a0ef          	jal	ra,1c308 <__sprint_r>
   11590:	ae050263          	beqz	a0,10874 <_vfprintf_r+0x330>
   11594:	01012b83          	lw	s7,16(sp)
   11598:	b00b8863          	beqz	s7,108a8 <_vfprintf_r+0x364>
   1159c:	000b8593          	mv	a1,s7
   115a0:	000d0513          	mv	a0,s10
   115a4:	590020ef          	jal	ra,13b34 <_free_r>
   115a8:	b00ff06f          	j	108a8 <_vfprintf_r+0x364>
   115ac:	0e812683          	lw	a3,232(sp)
   115b0:	00178c93          	addi	s9,a5,1
   115b4:	02012783          	lw	a5,32(sp)
   115b8:	00100613          	li	a2,1
   115bc:	0168a023          	sw	s6,0(a7)
   115c0:	00168493          	addi	s1,a3,1
   115c4:	00888913          	addi	s2,a7,8
   115c8:	38f65663          	bge	a2,a5,11954 <_vfprintf_r+0x1410>
   115cc:	00100793          	li	a5,1
   115d0:	00f8a223          	sw	a5,4(a7)
   115d4:	0f912623          	sw	s9,236(sp)
   115d8:	0e912423          	sw	s1,232(sp)
   115dc:	00700793          	li	a5,7
   115e0:	7497ce63          	blt	a5,s1,11d3c <_vfprintf_r+0x17f8>
   115e4:	02c12783          	lw	a5,44(sp)
   115e8:	03012703          	lw	a4,48(sp)
   115ec:	00148493          	addi	s1,s1,1
   115f0:	00fc8cb3          	add	s9,s9,a5
   115f4:	00f92223          	sw	a5,4(s2)
   115f8:	00e92023          	sw	a4,0(s2)
   115fc:	0f912623          	sw	s9,236(sp)
   11600:	0e912423          	sw	s1,232(sp)
   11604:	00700793          	li	a5,7
   11608:	00890913          	addi	s2,s2,8
   1160c:	7497ca63          	blt	a5,s1,11d60 <_vfprintf_r+0x181c>
   11610:	0f012783          	lw	a5,240(sp)
   11614:	00148613          	addi	a2,s1,1
   11618:	0a010593          	addi	a1,sp,160
   1161c:	0af12823          	sw	a5,176(sp)
   11620:	0f412783          	lw	a5,244(sp)
   11624:	0b010513          	addi	a0,sp,176
   11628:	00c12e23          	sw	a2,28(sp)
   1162c:	0af12a23          	sw	a5,180(sp)
   11630:	0f812783          	lw	a5,248(sp)
   11634:	0a012023          	sw	zero,160(sp)
   11638:	0a012223          	sw	zero,164(sp)
   1163c:	0af12c23          	sw	a5,184(sp)
   11640:	0fc12783          	lw	a5,252(sp)
   11644:	0a012423          	sw	zero,168(sp)
   11648:	0a012623          	sw	zero,172(sp)
   1164c:	0af12e23          	sw	a5,188(sp)
   11650:	4450f0ef          	jal	ra,21294 <__eqtf2>
   11654:	01c12603          	lw	a2,28(sp)
   11658:	02012783          	lw	a5,32(sp)
   1165c:	00890893          	addi	a7,s2,8
   11660:	00060693          	mv	a3,a2
   11664:	fff78d93          	addi	s11,a5,-1
   11668:	30050a63          	beqz	a0,1197c <_vfprintf_r+0x1438>
   1166c:	001b0713          	addi	a4,s6,1
   11670:	01bc8cb3          	add	s9,s9,s11
   11674:	00e92023          	sw	a4,0(s2)
   11678:	01b92223          	sw	s11,4(s2)
   1167c:	0f912623          	sw	s9,236(sp)
   11680:	0ec12423          	sw	a2,232(sp)
   11684:	00700793          	li	a5,7
   11688:	50c7cc63          	blt	a5,a2,11ba0 <_vfprintf_r+0x165c>
   1168c:	01090793          	addi	a5,s2,16
   11690:	00248693          	addi	a3,s1,2
   11694:	00088913          	mv	s2,a7
   11698:	00078893          	mv	a7,a5
   1169c:	03812603          	lw	a2,56(sp)
   116a0:	0d410713          	addi	a4,sp,212
   116a4:	00e92023          	sw	a4,0(s2)
   116a8:	019607b3          	add	a5,a2,s9
   116ac:	00c92223          	sw	a2,4(s2)
   116b0:	0ef12623          	sw	a5,236(sp)
   116b4:	0ed12423          	sw	a3,232(sp)
   116b8:	00700713          	li	a4,7
   116bc:	98d75863          	bge	a4,a3,1084c <_vfprintf_r+0x308>
   116c0:	ef4ff06f          	j	10db4 <_vfprintf_r+0x870>
   116c4:	00025737          	lui	a4,0x25
   116c8:	01000613          	li	a2,16
   116cc:	0e812683          	lw	a3,232(sp)
   116d0:	9b470e93          	addi	t4,a4,-1612 # 249b4 <blanks.4483>
   116d4:	09065c63          	bge	a2,a6,1176c <_vfprintf_r+0x1228>
   116d8:	04812023          	sw	s0,64(sp)
   116dc:	04912223          	sw	s1,68(sp)
   116e0:	000d0413          	mv	s0,s10
   116e4:	000c0493          	mv	s1,s8
   116e8:	01000e13          	li	t3,16
   116ec:	00700293          	li	t0,7
   116f0:	00080c13          	mv	s8,a6
   116f4:	000e8d13          	mv	s10,t4
   116f8:	00c0006f          	j	11704 <_vfprintf_r+0x11c0>
   116fc:	ff0c0c13          	addi	s8,s8,-16
   11700:	058e5a63          	bge	t3,s8,11754 <_vfprintf_r+0x1210>
   11704:	01078793          	addi	a5,a5,16
   11708:	00168693          	addi	a3,a3,1
   1170c:	01a8a023          	sw	s10,0(a7)
   11710:	01c8a223          	sw	t3,4(a7)
   11714:	0ef12623          	sw	a5,236(sp)
   11718:	0ed12423          	sw	a3,232(sp)
   1171c:	00888893          	addi	a7,a7,8
   11720:	fcd2dee3          	bge	t0,a3,116fc <_vfprintf_r+0x11b8>
   11724:	0e410613          	addi	a2,sp,228
   11728:	00048593          	mv	a1,s1
   1172c:	00040513          	mv	a0,s0
   11730:	3d90a0ef          	jal	ra,1c308 <__sprint_r>
   11734:	7a051263          	bnez	a0,11ed8 <_vfprintf_r+0x1994>
   11738:	01000e13          	li	t3,16
   1173c:	ff0c0c13          	addi	s8,s8,-16
   11740:	0ec12783          	lw	a5,236(sp)
   11744:	0e812683          	lw	a3,232(sp)
   11748:	10c10893          	addi	a7,sp,268
   1174c:	00700293          	li	t0,7
   11750:	fb8e4ae3          	blt	t3,s8,11704 <_vfprintf_r+0x11c0>
   11754:	000c0813          	mv	a6,s8
   11758:	000d0e93          	mv	t4,s10
   1175c:	00048c13          	mv	s8,s1
   11760:	00040d13          	mv	s10,s0
   11764:	04412483          	lw	s1,68(sp)
   11768:	04012403          	lw	s0,64(sp)
   1176c:	010787b3          	add	a5,a5,a6
   11770:	00168693          	addi	a3,a3,1
   11774:	01d8a023          	sw	t4,0(a7)
   11778:	0108a223          	sw	a6,4(a7)
   1177c:	0ef12623          	sw	a5,236(sp)
   11780:	0ed12423          	sw	a3,232(sp)
   11784:	00700613          	li	a2,7
   11788:	00888893          	addi	a7,a7,8
   1178c:	00d64463          	blt	a2,a3,11794 <_vfprintf_r+0x1250>
   11790:	80cff06f          	j	1079c <_vfprintf_r+0x258>
   11794:	0e410613          	addi	a2,sp,228
   11798:	000c0593          	mv	a1,s8
   1179c:	000d0513          	mv	a0,s10
   117a0:	3690a0ef          	jal	ra,1c308 <__sprint_r>
   117a4:	de0518e3          	bnez	a0,11594 <_vfprintf_r+0x1050>
   117a8:	0ec12783          	lw	a5,236(sp)
   117ac:	10c10893          	addi	a7,sp,268
   117b0:	fedfe06f          	j	1079c <_vfprintf_r+0x258>
   117b4:	0e410613          	addi	a2,sp,228
   117b8:	000c0593          	mv	a1,s8
   117bc:	000d0513          	mv	a0,s10
   117c0:	3490a0ef          	jal	ra,1c308 <__sprint_r>
   117c4:	dc0518e3          	bnez	a0,11594 <_vfprintf_r+0x1050>
   117c8:	0ec12783          	lw	a5,236(sp)
   117cc:	10c10893          	addi	a7,sp,268
   117d0:	83cff06f          	j	1080c <_vfprintf_r+0x2c8>
   117d4:	0cc12583          	lw	a1,204(sp)
   117d8:	66b05c63          	blez	a1,11e50 <_vfprintf_r+0x190c>
   117dc:	01c12703          	lw	a4,28(sp)
   117e0:	02012683          	lw	a3,32(sp)
   117e4:	00070493          	mv	s1,a4
   117e8:	38e6c263          	blt	a3,a4,11b6c <_vfprintf_r+0x1628>
   117ec:	02905663          	blez	s1,11818 <_vfprintf_r+0x12d4>
   117f0:	0e812683          	lw	a3,232(sp)
   117f4:	009787b3          	add	a5,a5,s1
   117f8:	0168a023          	sw	s6,0(a7)
   117fc:	00168693          	addi	a3,a3,1
   11800:	0098a223          	sw	s1,4(a7)
   11804:	0ef12623          	sw	a5,236(sp)
   11808:	0ed12423          	sw	a3,232(sp)
   1180c:	00700613          	li	a2,7
   11810:	00888893          	addi	a7,a7,8
   11814:	32d642e3          	blt	a2,a3,12338 <_vfprintf_r+0x1df4>
   11818:	fff4c693          	not	a3,s1
   1181c:	01c12703          	lw	a4,28(sp)
   11820:	41f6d693          	srai	a3,a3,0x1f
   11824:	00d4f4b3          	and	s1,s1,a3
   11828:	409704b3          	sub	s1,a4,s1
   1182c:	48904463          	bgtz	s1,11cb4 <_vfprintf_r+0x1770>
   11830:	01c12703          	lw	a4,28(sp)
   11834:	400a7693          	andi	a3,s4,1024
   11838:	00eb0db3          	add	s11,s6,a4
   1183c:	0c0698e3          	bnez	a3,1210c <_vfprintf_r+0x1bc8>
   11840:	0cc12483          	lw	s1,204(sp)
   11844:	02012703          	lw	a4,32(sp)
   11848:	00e4c663          	blt	s1,a4,11854 <_vfprintf_r+0x1310>
   1184c:	001a7693          	andi	a3,s4,1
   11850:	300688e3          	beqz	a3,12360 <_vfprintf_r+0x1e1c>
   11854:	03012683          	lw	a3,48(sp)
   11858:	02c12703          	lw	a4,44(sp)
   1185c:	00700613          	li	a2,7
   11860:	00d8a023          	sw	a3,0(a7)
   11864:	0e812683          	lw	a3,232(sp)
   11868:	00e787b3          	add	a5,a5,a4
   1186c:	00e8a223          	sw	a4,4(a7)
   11870:	00168693          	addi	a3,a3,1
   11874:	0ef12623          	sw	a5,236(sp)
   11878:	0ed12423          	sw	a3,232(sp)
   1187c:	00888893          	addi	a7,a7,8
   11880:	00d65463          	bge	a2,a3,11888 <_vfprintf_r+0x1344>
   11884:	1780106f          	j	129fc <_vfprintf_r+0x24b8>
   11888:	02012683          	lw	a3,32(sp)
   1188c:	00db0733          	add	a4,s6,a3
   11890:	409684b3          	sub	s1,a3,s1
   11894:	41b70733          	sub	a4,a4,s11
   11898:	00048913          	mv	s2,s1
   1189c:	00975463          	bge	a4,s1,118a4 <_vfprintf_r+0x1360>
   118a0:	00070913          	mv	s2,a4
   118a4:	03205863          	blez	s2,118d4 <_vfprintf_r+0x1390>
   118a8:	0e812703          	lw	a4,232(sp)
   118ac:	012787b3          	add	a5,a5,s2
   118b0:	01b8a023          	sw	s11,0(a7)
   118b4:	00170713          	addi	a4,a4,1
   118b8:	0128a223          	sw	s2,4(a7)
   118bc:	0ef12623          	sw	a5,236(sp)
   118c0:	0ee12423          	sw	a4,232(sp)
   118c4:	00700693          	li	a3,7
   118c8:	00888893          	addi	a7,a7,8
   118cc:	00e6d463          	bge	a3,a4,118d4 <_vfprintf_r+0x1390>
   118d0:	1c80106f          	j	12a98 <_vfprintf_r+0x2554>
   118d4:	fff94713          	not	a4,s2
   118d8:	41f75713          	srai	a4,a4,0x1f
   118dc:	00e97733          	and	a4,s2,a4
   118e0:	40e484b3          	sub	s1,s1,a4
   118e4:	00904463          	bgtz	s1,118ec <_vfprintf_r+0x13a8>
   118e8:	f65fe06f          	j	1084c <_vfprintf_r+0x308>
   118ec:	01000693          	li	a3,16
   118f0:	0e812703          	lw	a4,232(sp)
   118f4:	6296d863          	bge	a3,s1,11f24 <_vfprintf_r+0x19e0>
   118f8:	01000913          	li	s2,16
   118fc:	00700c93          	li	s9,7
   11900:	00c0006f          	j	1190c <_vfprintf_r+0x13c8>
   11904:	ff048493          	addi	s1,s1,-16
   11908:	60995e63          	bge	s2,s1,11f24 <_vfprintf_r+0x19e0>
   1190c:	00812683          	lw	a3,8(sp)
   11910:	01078793          	addi	a5,a5,16
   11914:	00170713          	addi	a4,a4,1
   11918:	00d8a023          	sw	a3,0(a7)
   1191c:	0128a223          	sw	s2,4(a7)
   11920:	0ef12623          	sw	a5,236(sp)
   11924:	0ee12423          	sw	a4,232(sp)
   11928:	00888893          	addi	a7,a7,8
   1192c:	fcecdce3          	bge	s9,a4,11904 <_vfprintf_r+0x13c0>
   11930:	0e410613          	addi	a2,sp,228
   11934:	000c0593          	mv	a1,s8
   11938:	000d0513          	mv	a0,s10
   1193c:	1cd0a0ef          	jal	ra,1c308 <__sprint_r>
   11940:	c4051ae3          	bnez	a0,11594 <_vfprintf_r+0x1050>
   11944:	0ec12783          	lw	a5,236(sp)
   11948:	0e812703          	lw	a4,232(sp)
   1194c:	10c10893          	addi	a7,sp,268
   11950:	fb5ff06f          	j	11904 <_vfprintf_r+0x13c0>
   11954:	001a7793          	andi	a5,s4,1
   11958:	c6079ae3          	bnez	a5,115cc <_vfprintf_r+0x1088>
   1195c:	00c8a223          	sw	a2,4(a7)
   11960:	0f912623          	sw	s9,236(sp)
   11964:	0e912423          	sw	s1,232(sp)
   11968:	00700793          	li	a5,7
   1196c:	2297ca63          	blt	a5,s1,11ba0 <_vfprintf_r+0x165c>
   11970:	00268693          	addi	a3,a3,2
   11974:	01088893          	addi	a7,a7,16
   11978:	d25ff06f          	j	1169c <_vfprintf_r+0x1158>
   1197c:	d3b050e3          	blez	s11,1169c <_vfprintf_r+0x1158>
   11980:	01000713          	li	a4,16
   11984:	01b74463          	blt	a4,s11,1198c <_vfprintf_r+0x1448>
   11988:	6200106f          	j	12fa8 <_vfprintf_r+0x2a64>
   1198c:	00700b13          	li	s6,7
   11990:	00060493          	mv	s1,a2
   11994:	0100006f          	j	119a4 <_vfprintf_r+0x1460>
   11998:	ff0d8d93          	addi	s11,s11,-16
   1199c:	1db75e63          	bge	a4,s11,11b78 <_vfprintf_r+0x1634>
   119a0:	00148493          	addi	s1,s1,1
   119a4:	00812783          	lw	a5,8(sp)
   119a8:	010c8c93          	addi	s9,s9,16
   119ac:	00e92223          	sw	a4,4(s2)
   119b0:	00f92023          	sw	a5,0(s2)
   119b4:	0f912623          	sw	s9,236(sp)
   119b8:	0e912423          	sw	s1,232(sp)
   119bc:	00890913          	addi	s2,s2,8
   119c0:	fc9b5ce3          	bge	s6,s1,11998 <_vfprintf_r+0x1454>
   119c4:	0e410613          	addi	a2,sp,228
   119c8:	000c0593          	mv	a1,s8
   119cc:	000d0513          	mv	a0,s10
   119d0:	1390a0ef          	jal	ra,1c308 <__sprint_r>
   119d4:	bc0510e3          	bnez	a0,11594 <_vfprintf_r+0x1050>
   119d8:	0ec12c83          	lw	s9,236(sp)
   119dc:	0e812483          	lw	s1,232(sp)
   119e0:	10c10913          	addi	s2,sp,268
   119e4:	01000713          	li	a4,16
   119e8:	fb1ff06f          	j	11998 <_vfprintf_r+0x1454>
   119ec:	01412683          	lw	a3,20(sp)
   119f0:	010a7793          	andi	a5,s4,16
   119f4:	00468713          	addi	a4,a3,4
   119f8:	16079263          	bnez	a5,11b5c <_vfprintf_r+0x1618>
   119fc:	040a7793          	andi	a5,s4,64
   11a00:	68078463          	beqz	a5,12088 <_vfprintf_r+0x1b44>
   11a04:	01412783          	lw	a5,20(sp)
   11a08:	00000c93          	li	s9,0
   11a0c:	00e12a23          	sw	a4,20(sp)
   11a10:	0007d903          	lhu	s2,0(a5)
   11a14:	f1cff06f          	j	11130 <_vfprintf_r+0xbec>
   11a18:	01412683          	lw	a3,20(sp)
   11a1c:	010bf793          	andi	a5,s7,16
   11a20:	00468713          	addi	a4,a3,4
   11a24:	0c079e63          	bnez	a5,11b00 <_vfprintf_r+0x15bc>
   11a28:	040bf793          	andi	a5,s7,64
   11a2c:	60078e63          	beqz	a5,12048 <_vfprintf_r+0x1b04>
   11a30:	01412783          	lw	a5,20(sp)
   11a34:	00000c93          	li	s9,0
   11a38:	00e12a23          	sw	a4,20(sp)
   11a3c:	0007d903          	lhu	s2,0(a5)
   11a40:	00100793          	li	a5,1
   11a44:	db0ff06f          	j	10ff4 <_vfprintf_r+0xab0>
   11a48:	01412683          	lw	a3,20(sp)
   11a4c:	010a7793          	andi	a5,s4,16
   11a50:	00468713          	addi	a4,a3,4
   11a54:	0e079a63          	bnez	a5,11b48 <_vfprintf_r+0x1604>
   11a58:	040a7793          	andi	a5,s4,64
   11a5c:	60078663          	beqz	a5,12068 <_vfprintf_r+0x1b24>
   11a60:	01412783          	lw	a5,20(sp)
   11a64:	00e12a23          	sw	a4,20(sp)
   11a68:	00079903          	lh	s2,0(a5)
   11a6c:	41f95c93          	srai	s9,s2,0x1f
   11a70:	000c8793          	mv	a5,s9
   11a74:	f207de63          	bgez	a5,111b0 <_vfprintf_r+0xc6c>
   11a78:	012037b3          	snez	a5,s2
   11a7c:	41900cb3          	neg	s9,s9
   11a80:	40fc8cb3          	sub	s9,s9,a5
   11a84:	02d00793          	li	a5,45
   11a88:	0cf103a3          	sb	a5,199(sp)
   11a8c:	41200933          	neg	s2,s2
   11a90:	000a0b93          	mv	s7,s4
   11a94:	00100793          	li	a5,1
   11a98:	d60ff06f          	j	10ff8 <_vfprintf_r+0xab4>
   11a9c:	001a7713          	andi	a4,s4,1
   11aa0:	00071463          	bnez	a4,11aa8 <_vfprintf_r+0x1564>
   11aa4:	da9fe06f          	j	1084c <_vfprintf_r+0x308>
   11aa8:	8c1ff06f          	j	11368 <_vfprintf_r+0xe24>
   11aac:	000c8893          	mv	a7,s9
   11ab0:	ed4ff06f          	j	11184 <_vfprintf_r+0xc40>
   11ab4:	03000793          	li	a5,48
   11ab8:	1af107a3          	sb	a5,431(sp)
   11abc:	1af10b13          	addi	s6,sp,431
   11ac0:	d60ff06f          	j	11020 <_vfprintf_r+0xadc>
   11ac4:	03c12783          	lw	a5,60(sp)
   11ac8:	00044483          	lbu	s1,0(s0)
   11acc:	00079463          	bnez	a5,11ad4 <_vfprintf_r+0x1590>
   11ad0:	c2dfe06f          	j	106fc <_vfprintf_r+0x1b8>
   11ad4:	0007c783          	lbu	a5,0(a5)
   11ad8:	00079463          	bnez	a5,11ae0 <_vfprintf_r+0x159c>
   11adc:	c21fe06f          	j	106fc <_vfprintf_r+0x1b8>
   11ae0:	400a6a13          	ori	s4,s4,1024
   11ae4:	c19fe06f          	j	106fc <_vfprintf_r+0x1b8>
   11ae8:	00c12683          	lw	a3,12(sp)
   11aec:	00040b13          	mv	s6,s0
   11af0:	41f6d793          	srai	a5,a3,0x1f
   11af4:	00d72023          	sw	a3,0(a4)
   11af8:	00f72223          	sw	a5,4(a4)
   11afc:	d99fe06f          	j	10894 <_vfprintf_r+0x350>
   11b00:	0006a903          	lw	s2,0(a3)
   11b04:	00000c93          	li	s9,0
   11b08:	00e12a23          	sw	a4,20(sp)
   11b0c:	00100793          	li	a5,1
   11b10:	ce4ff06f          	j	10ff4 <_vfprintf_r+0xab0>
   11b14:	01412703          	lw	a4,20(sp)
   11b18:	00072783          	lw	a5,0(a4)
   11b1c:	00470713          	addi	a4,a4,4
   11b20:	00e12a23          	sw	a4,20(sp)
   11b24:	0007a583          	lw	a1,0(a5)
   11b28:	0047a603          	lw	a2,4(a5)
   11b2c:	0087a683          	lw	a3,8(a5)
   11b30:	00c7a783          	lw	a5,12(a5)
   11b34:	0eb12823          	sw	a1,240(sp)
   11b38:	0ec12a23          	sw	a2,244(sp)
   11b3c:	0ed12c23          	sw	a3,248(sp)
   11b40:	0ef12e23          	sw	a5,252(sp)
   11b44:	ed5fe06f          	j	10a18 <_vfprintf_r+0x4d4>
   11b48:	0006a903          	lw	s2,0(a3)
   11b4c:	00e12a23          	sw	a4,20(sp)
   11b50:	41f95c93          	srai	s9,s2,0x1f
   11b54:	000c8793          	mv	a5,s9
   11b58:	e54ff06f          	j	111ac <_vfprintf_r+0xc68>
   11b5c:	0006a903          	lw	s2,0(a3)
   11b60:	00000c93          	li	s9,0
   11b64:	00e12a23          	sw	a4,20(sp)
   11b68:	dc8ff06f          	j	11130 <_vfprintf_r+0xbec>
   11b6c:	00068493          	mv	s1,a3
   11b70:	c89040e3          	bgtz	s1,117f0 <_vfprintf_r+0x12ac>
   11b74:	ca5ff06f          	j	11818 <_vfprintf_r+0x12d4>
   11b78:	00148693          	addi	a3,s1,1
   11b7c:	00890713          	addi	a4,s2,8
   11b80:	00812783          	lw	a5,8(sp)
   11b84:	01bc8cb3          	add	s9,s9,s11
   11b88:	01b92223          	sw	s11,4(s2)
   11b8c:	00f92023          	sw	a5,0(s2)
   11b90:	0f912623          	sw	s9,236(sp)
   11b94:	0ed12423          	sw	a3,232(sp)
   11b98:	00700793          	li	a5,7
   11b9c:	74d7de63          	bge	a5,a3,122f8 <_vfprintf_r+0x1db4>
   11ba0:	0e410613          	addi	a2,sp,228
   11ba4:	000c0593          	mv	a1,s8
   11ba8:	000d0513          	mv	a0,s10
   11bac:	75c0a0ef          	jal	ra,1c308 <__sprint_r>
   11bb0:	9e0512e3          	bnez	a0,11594 <_vfprintf_r+0x1050>
   11bb4:	0e812683          	lw	a3,232(sp)
   11bb8:	0ec12c83          	lw	s9,236(sp)
   11bbc:	11410893          	addi	a7,sp,276
   11bc0:	00168693          	addi	a3,a3,1
   11bc4:	10c10913          	addi	s2,sp,268
   11bc8:	ad5ff06f          	j	1169c <_vfprintf_r+0x1158>
   11bcc:	000c8893          	mv	a7,s9
   11bd0:	000a0b93          	mv	s7,s4
   11bd4:	d70ff06f          	j	11144 <_vfprintf_r+0xc00>
   11bd8:	000257b7          	lui	a5,0x25
   11bdc:	81478793          	addi	a5,a5,-2028 # 24814 <__clzsi2+0x78>
   11be0:	000c8893          	mv	a7,s9
   11be4:	02f12a23          	sw	a5,52(sp)
   11be8:	020a7793          	andi	a5,s4,32
   11bec:	12078863          	beqz	a5,11d1c <_vfprintf_r+0x17d8>
   11bf0:	01412783          	lw	a5,20(sp)
   11bf4:	00778b13          	addi	s6,a5,7
   11bf8:	ff8b7b13          	andi	s6,s6,-8
   11bfc:	000b2903          	lw	s2,0(s6)
   11c00:	004b2c83          	lw	s9,4(s6)
   11c04:	008b0793          	addi	a5,s6,8
   11c08:	00f12a23          	sw	a5,20(sp)
   11c0c:	001a7793          	andi	a5,s4,1
   11c10:	00078e63          	beqz	a5,11c2c <_vfprintf_r+0x16e8>
   11c14:	019967b3          	or	a5,s2,s9
   11c18:	00078a63          	beqz	a5,11c2c <_vfprintf_r+0x16e8>
   11c1c:	03000793          	li	a5,48
   11c20:	0cf10423          	sb	a5,200(sp)
   11c24:	0c9104a3          	sb	s1,201(sp)
   11c28:	002a6a13          	ori	s4,s4,2
   11c2c:	bffa7b93          	andi	s7,s4,-1025
   11c30:	00200793          	li	a5,2
   11c34:	bc0ff06f          	j	10ff4 <_vfprintf_r+0xab0>
   11c38:	000257b7          	lui	a5,0x25
   11c3c:	82878793          	addi	a5,a5,-2008 # 24828 <__clzsi2+0x8c>
   11c40:	000c8893          	mv	a7,s9
   11c44:	02f12a23          	sw	a5,52(sp)
   11c48:	fa1ff06f          	j	11be8 <_vfprintf_r+0x16a4>
   11c4c:	000c8893          	mv	a7,s9
   11c50:	cbcff06f          	j	1110c <_vfprintf_r+0xbc8>
   11c54:	0e410613          	addi	a2,sp,228
   11c58:	000c0593          	mv	a1,s8
   11c5c:	000d0513          	mv	a0,s10
   11c60:	6a80a0ef          	jal	ra,1c308 <__sprint_r>
   11c64:	920518e3          	bnez	a0,11594 <_vfprintf_r+0x1050>
   11c68:	0ec12783          	lw	a5,236(sp)
   11c6c:	10c10893          	addi	a7,sp,268
   11c70:	f28ff06f          	j	11398 <_vfprintf_r+0xe54>
   11c74:	00144483          	lbu	s1,1(s0)
   11c78:	020a6a13          	ori	s4,s4,32
   11c7c:	00140413          	addi	s0,s0,1
   11c80:	a7dfe06f          	j	106fc <_vfprintf_r+0x1b8>
   11c84:	00144483          	lbu	s1,1(s0)
   11c88:	200a6a13          	ori	s4,s4,512
   11c8c:	00140413          	addi	s0,s0,1
   11c90:	a6dfe06f          	j	106fc <_vfprintf_r+0x1b8>
   11c94:	00600793          	li	a5,6
   11c98:	000d8c93          	mv	s9,s11
   11c9c:	6bb7ee63          	bltu	a5,s11,12358 <_vfprintf_r+0x1e14>
   11ca0:	00025737          	lui	a4,0x25
   11ca4:	000c8a93          	mv	s5,s9
   11ca8:	01212a23          	sw	s2,20(sp)
   11cac:	83c70b13          	addi	s6,a4,-1988 # 2483c <__clzsi2+0xa0>
   11cb0:	ab9fe06f          	j	10768 <_vfprintf_r+0x224>
   11cb4:	01000613          	li	a2,16
   11cb8:	0e812683          	lw	a3,232(sp)
   11cbc:	40965463          	bge	a2,s1,120c4 <_vfprintf_r+0x1b80>
   11cc0:	01000c93          	li	s9,16
   11cc4:	00700d93          	li	s11,7
   11cc8:	00c0006f          	j	11cd4 <_vfprintf_r+0x1790>
   11ccc:	ff048493          	addi	s1,s1,-16
   11cd0:	3e9cda63          	bge	s9,s1,120c4 <_vfprintf_r+0x1b80>
   11cd4:	00812703          	lw	a4,8(sp)
   11cd8:	01078793          	addi	a5,a5,16
   11cdc:	00168693          	addi	a3,a3,1
   11ce0:	00e8a023          	sw	a4,0(a7)
   11ce4:	0198a223          	sw	s9,4(a7)
   11ce8:	0ef12623          	sw	a5,236(sp)
   11cec:	0ed12423          	sw	a3,232(sp)
   11cf0:	00888893          	addi	a7,a7,8
   11cf4:	fcdddce3          	bge	s11,a3,11ccc <_vfprintf_r+0x1788>
   11cf8:	0e410613          	addi	a2,sp,228
   11cfc:	000c0593          	mv	a1,s8
   11d00:	000d0513          	mv	a0,s10
   11d04:	6040a0ef          	jal	ra,1c308 <__sprint_r>
   11d08:	880516e3          	bnez	a0,11594 <_vfprintf_r+0x1050>
   11d0c:	0ec12783          	lw	a5,236(sp)
   11d10:	0e812683          	lw	a3,232(sp)
   11d14:	10c10893          	addi	a7,sp,268
   11d18:	fb5ff06f          	j	11ccc <_vfprintf_r+0x1788>
   11d1c:	01412683          	lw	a3,20(sp)
   11d20:	010a7793          	andi	a5,s4,16
   11d24:	00468713          	addi	a4,a3,4
   11d28:	1c078063          	beqz	a5,11ee8 <_vfprintf_r+0x19a4>
   11d2c:	0006a903          	lw	s2,0(a3)
   11d30:	00000c93          	li	s9,0
   11d34:	00e12a23          	sw	a4,20(sp)
   11d38:	ed5ff06f          	j	11c0c <_vfprintf_r+0x16c8>
   11d3c:	0e410613          	addi	a2,sp,228
   11d40:	000c0593          	mv	a1,s8
   11d44:	000d0513          	mv	a0,s10
   11d48:	5c00a0ef          	jal	ra,1c308 <__sprint_r>
   11d4c:	840514e3          	bnez	a0,11594 <_vfprintf_r+0x1050>
   11d50:	0ec12c83          	lw	s9,236(sp)
   11d54:	0e812483          	lw	s1,232(sp)
   11d58:	10c10913          	addi	s2,sp,268
   11d5c:	889ff06f          	j	115e4 <_vfprintf_r+0x10a0>
   11d60:	0e410613          	addi	a2,sp,228
   11d64:	000c0593          	mv	a1,s8
   11d68:	000d0513          	mv	a0,s10
   11d6c:	59c0a0ef          	jal	ra,1c308 <__sprint_r>
   11d70:	820512e3          	bnez	a0,11594 <_vfprintf_r+0x1050>
   11d74:	0ec12c83          	lw	s9,236(sp)
   11d78:	0e812483          	lw	s1,232(sp)
   11d7c:	10c10913          	addi	s2,sp,268
   11d80:	891ff06f          	j	11610 <_vfprintf_r+0x10cc>
   11d84:	1b010b13          	addi	s6,sp,432
   11d88:	00000793          	li	a5,0
   11d8c:	00812823          	sw	s0,16(sp)
   11d90:	00912e23          	sw	s1,28(sp)
   11d94:	000b0413          	mv	s0,s6
   11d98:	03312223          	sw	s3,36(sp)
   11d9c:	000c0b13          	mv	s6,s8
   11da0:	00090493          	mv	s1,s2
   11da4:	000c8993          	mv	s3,s9
   11da8:	400bfa13          	andi	s4,s7,1024
   11dac:	03c12c83          	lw	s9,60(sp)
   11db0:	0ff00a93          	li	s5,255
   11db4:	00088c13          	mv	s8,a7
   11db8:	00078913          	mv	s2,a5
   11dbc:	0240006f          	j	11de0 <_vfprintf_r+0x189c>
   11dc0:	00a00613          	li	a2,10
   11dc4:	00000693          	li	a3,0
   11dc8:	00048513          	mv	a0,s1
   11dcc:	00098593          	mv	a1,s3
   11dd0:	3a50d0ef          	jal	ra,1f974 <__udivdi3>
   11dd4:	2a098ae3          	beqz	s3,12888 <_vfprintf_r+0x2344>
   11dd8:	00050493          	mv	s1,a0
   11ddc:	00058993          	mv	s3,a1
   11de0:	00a00613          	li	a2,10
   11de4:	00000693          	li	a3,0
   11de8:	00048513          	mv	a0,s1
   11dec:	00098593          	mv	a1,s3
   11df0:	15c0e0ef          	jal	ra,1ff4c <__umoddi3>
   11df4:	03050513          	addi	a0,a0,48
   11df8:	fea40fa3          	sb	a0,-1(s0)
   11dfc:	00190913          	addi	s2,s2,1
   11e00:	fff40413          	addi	s0,s0,-1
   11e04:	fa0a0ee3          	beqz	s4,11dc0 <_vfprintf_r+0x187c>
   11e08:	000cc683          	lbu	a3,0(s9)
   11e0c:	fad91ae3          	bne	s2,a3,11dc0 <_vfprintf_r+0x187c>
   11e10:	fb5908e3          	beq	s2,s5,11dc0 <_vfprintf_r+0x187c>
   11e14:	4a099263          	bnez	s3,122b8 <_vfprintf_r+0x1d74>
   11e18:	00900793          	li	a5,9
   11e1c:	4897ee63          	bltu	a5,s1,122b8 <_vfprintf_r+0x1d74>
   11e20:	000c0893          	mv	a7,s8
   11e24:	1b010793          	addi	a5,sp,432
   11e28:	000b0c13          	mv	s8,s6
   11e2c:	00040b13          	mv	s6,s0
   11e30:	03912e23          	sw	s9,60(sp)
   11e34:	01c12483          	lw	s1,28(sp)
   11e38:	02412983          	lw	s3,36(sp)
   11e3c:	01012403          	lw	s0,16(sp)
   11e40:	03212023          	sw	s2,32(sp)
   11e44:	41678cb3          	sub	s9,a5,s6
   11e48:	000b8a13          	mv	s4,s7
   11e4c:	9d4ff06f          	j	11020 <_vfprintf_r+0xadc>
   11e50:	0e812683          	lw	a3,232(sp)
   11e54:	00025637          	lui	a2,0x25
   11e58:	84460613          	addi	a2,a2,-1980 # 24844 <__clzsi2+0xa8>
   11e5c:	00c8a023          	sw	a2,0(a7)
   11e60:	00178793          	addi	a5,a5,1
   11e64:	00100613          	li	a2,1
   11e68:	00168693          	addi	a3,a3,1
   11e6c:	00c8a223          	sw	a2,4(a7)
   11e70:	0ef12623          	sw	a5,236(sp)
   11e74:	0ed12423          	sw	a3,232(sp)
   11e78:	00700613          	li	a2,7
   11e7c:	00888893          	addi	a7,a7,8
   11e80:	48d64463          	blt	a2,a3,12308 <_vfprintf_r+0x1dc4>
   11e84:	00058463          	beqz	a1,11e8c <_vfprintf_r+0x1948>
   11e88:	eadfe06f          	j	10d34 <_vfprintf_r+0x7f0>
   11e8c:	02012703          	lw	a4,32(sp)
   11e90:	001a7693          	andi	a3,s4,1
   11e94:	00e6e6b3          	or	a3,a3,a4
   11e98:	00069463          	bnez	a3,11ea0 <_vfprintf_r+0x195c>
   11e9c:	9b1fe06f          	j	1084c <_vfprintf_r+0x308>
   11ea0:	03012683          	lw	a3,48(sp)
   11ea4:	02c12703          	lw	a4,44(sp)
   11ea8:	00700613          	li	a2,7
   11eac:	00d8a023          	sw	a3,0(a7)
   11eb0:	0e812683          	lw	a3,232(sp)
   11eb4:	00f707b3          	add	a5,a4,a5
   11eb8:	00e8a223          	sw	a4,4(a7)
   11ebc:	00168693          	addi	a3,a3,1
   11ec0:	0ef12623          	sw	a5,236(sp)
   11ec4:	0ed12423          	sw	a3,232(sp)
   11ec8:	00d65463          	bge	a2,a3,11ed0 <_vfprintf_r+0x198c>
   11ecc:	e99fe06f          	j	10d64 <_vfprintf_r+0x820>
   11ed0:	00888893          	addi	a7,a7,8
   11ed4:	ebdfe06f          	j	10d90 <_vfprintf_r+0x84c>
   11ed8:	01012b83          	lw	s7,16(sp)
   11edc:	00040d13          	mv	s10,s0
   11ee0:	00048c13          	mv	s8,s1
   11ee4:	eb4ff06f          	j	11598 <_vfprintf_r+0x1054>
   11ee8:	040a7793          	andi	a5,s4,64
   11eec:	14078063          	beqz	a5,1202c <_vfprintf_r+0x1ae8>
   11ef0:	01412783          	lw	a5,20(sp)
   11ef4:	00000c93          	li	s9,0
   11ef8:	00e12a23          	sw	a4,20(sp)
   11efc:	0007d903          	lhu	s2,0(a5)
   11f00:	d0dff06f          	j	11c0c <_vfprintf_r+0x16c8>
   11f04:	0e410613          	addi	a2,sp,228
   11f08:	000c0593          	mv	a1,s8
   11f0c:	000d0513          	mv	a0,s10
   11f10:	3f80a0ef          	jal	ra,1c308 <__sprint_r>
   11f14:	e8051063          	bnez	a0,11594 <_vfprintf_r+0x1050>
   11f18:	0ec12783          	lw	a5,236(sp)
   11f1c:	10c10893          	addi	a7,sp,268
   11f20:	c3cff06f          	j	1135c <_vfprintf_r+0xe18>
   11f24:	00812683          	lw	a3,8(sp)
   11f28:	009787b3          	add	a5,a5,s1
   11f2c:	0098a223          	sw	s1,4(a7)
   11f30:	00d8a023          	sw	a3,0(a7)
   11f34:	00170713          	addi	a4,a4,1
   11f38:	0ef12623          	sw	a5,236(sp)
   11f3c:	0ee12423          	sw	a4,232(sp)
   11f40:	00700693          	li	a3,7
   11f44:	00e6c463          	blt	a3,a4,11f4c <_vfprintf_r+0x1a08>
   11f48:	901fe06f          	j	10848 <_vfprintf_r+0x304>
   11f4c:	e69fe06f          	j	10db4 <_vfprintf_r+0x870>
   11f50:	0f012783          	lw	a5,240(sp)
   11f54:	0a010593          	addi	a1,sp,160
   11f58:	0b010513          	addi	a0,sp,176
   11f5c:	0af12823          	sw	a5,176(sp)
   11f60:	0f412783          	lw	a5,244(sp)
   11f64:	0a012023          	sw	zero,160(sp)
   11f68:	0a012223          	sw	zero,164(sp)
   11f6c:	0af12a23          	sw	a5,180(sp)
   11f70:	0f812783          	lw	a5,248(sp)
   11f74:	0a012423          	sw	zero,168(sp)
   11f78:	0a012623          	sw	zero,172(sp)
   11f7c:	0af12c23          	sw	a5,184(sp)
   11f80:	0fc12783          	lw	a5,252(sp)
   11f84:	0af12e23          	sw	a5,188(sp)
   11f88:	51c0f0ef          	jal	ra,214a4 <__letf2>
   11f8c:	01012883          	lw	a7,16(sp)
   11f90:	260540e3          	bltz	a0,129f0 <_vfprintf_r+0x24ac>
   11f94:	0c714783          	lbu	a5,199(sp)
   11f98:	04700713          	li	a4,71
   11f9c:	38975863          	bge	a4,s1,1232c <_vfprintf_r+0x1de8>
   11fa0:	00025737          	lui	a4,0x25
   11fa4:	80870b13          	addi	s6,a4,-2040 # 24808 <__clzsi2+0x6c>
   11fa8:	00012823          	sw	zero,16(sp)
   11fac:	02012423          	sw	zero,40(sp)
   11fb0:	02012223          	sw	zero,36(sp)
   11fb4:	00012e23          	sw	zero,28(sp)
   11fb8:	f7fa7a13          	andi	s4,s4,-129
   11fbc:	00300a93          	li	s5,3
   11fc0:	00300c93          	li	s9,3
   11fc4:	00000d93          	li	s11,0
   11fc8:	00078463          	beqz	a5,11fd0 <_vfprintf_r+0x1a8c>
   11fcc:	f75fe06f          	j	10f40 <_vfprintf_r+0x9fc>
   11fd0:	facfe06f          	j	1077c <_vfprintf_r+0x238>
   11fd4:	00c12783          	lw	a5,12(sp)
   11fd8:	00040b13          	mv	s6,s0
   11fdc:	00f72023          	sw	a5,0(a4)
   11fe0:	8b5fe06f          	j	10894 <_vfprintf_r+0x350>
   11fe4:	000b0513          	mv	a0,s6
   11fe8:	05912023          	sw	s9,64(sp)
   11fec:	cccfe0ef          	jal	ra,104b8 <strlen>
   11ff0:	0c714783          	lbu	a5,199(sp)
   11ff4:	fff54a93          	not	s5,a0
   11ff8:	41fada93          	srai	s5,s5,0x1f
   11ffc:	01212a23          	sw	s2,20(sp)
   12000:	00012823          	sw	zero,16(sp)
   12004:	02012423          	sw	zero,40(sp)
   12008:	02012223          	sw	zero,36(sp)
   1200c:	00012e23          	sw	zero,28(sp)
   12010:	04012883          	lw	a7,64(sp)
   12014:	00050c93          	mv	s9,a0
   12018:	01557ab3          	and	s5,a0,s5
   1201c:	00000d93          	li	s11,0
   12020:	00078463          	beqz	a5,12028 <_vfprintf_r+0x1ae4>
   12024:	f1dfe06f          	j	10f40 <_vfprintf_r+0x9fc>
   12028:	f54fe06f          	j	1077c <_vfprintf_r+0x238>
   1202c:	200a7793          	andi	a5,s4,512
   12030:	3a078263          	beqz	a5,123d4 <_vfprintf_r+0x1e90>
   12034:	01412783          	lw	a5,20(sp)
   12038:	00000c93          	li	s9,0
   1203c:	00e12a23          	sw	a4,20(sp)
   12040:	0007c903          	lbu	s2,0(a5)
   12044:	bc9ff06f          	j	11c0c <_vfprintf_r+0x16c8>
   12048:	200bf793          	andi	a5,s7,512
   1204c:	36078863          	beqz	a5,123bc <_vfprintf_r+0x1e78>
   12050:	01412783          	lw	a5,20(sp)
   12054:	00000c93          	li	s9,0
   12058:	00e12a23          	sw	a4,20(sp)
   1205c:	0007c903          	lbu	s2,0(a5)
   12060:	00100793          	li	a5,1
   12064:	f91fe06f          	j	10ff4 <_vfprintf_r+0xab0>
   12068:	200a7793          	andi	a5,s4,512
   1206c:	32078c63          	beqz	a5,123a4 <_vfprintf_r+0x1e60>
   12070:	01412783          	lw	a5,20(sp)
   12074:	00e12a23          	sw	a4,20(sp)
   12078:	00078903          	lb	s2,0(a5)
   1207c:	41f95c93          	srai	s9,s2,0x1f
   12080:	000c8793          	mv	a5,s9
   12084:	928ff06f          	j	111ac <_vfprintf_r+0xc68>
   12088:	200a7793          	andi	a5,s4,512
   1208c:	30078263          	beqz	a5,12390 <_vfprintf_r+0x1e4c>
   12090:	01412783          	lw	a5,20(sp)
   12094:	00000c93          	li	s9,0
   12098:	00e12a23          	sw	a4,20(sp)
   1209c:	0007c903          	lbu	s2,0(a5)
   120a0:	890ff06f          	j	11130 <_vfprintf_r+0xbec>
   120a4:	0fc12783          	lw	a5,252(sp)
   120a8:	3407ca63          	bltz	a5,123fc <_vfprintf_r+0x1eb8>
   120ac:	0c714783          	lbu	a5,199(sp)
   120b0:	04700713          	li	a4,71
   120b4:	1c975ce3          	bge	a4,s1,12a8c <_vfprintf_r+0x2548>
   120b8:	00025737          	lui	a4,0x25
   120bc:	81070b13          	addi	s6,a4,-2032 # 24810 <__clzsi2+0x74>
   120c0:	ee9ff06f          	j	11fa8 <_vfprintf_r+0x1a64>
   120c4:	00812703          	lw	a4,8(sp)
   120c8:	009787b3          	add	a5,a5,s1
   120cc:	00168693          	addi	a3,a3,1
   120d0:	00e8a023          	sw	a4,0(a7)
   120d4:	0098a223          	sw	s1,4(a7)
   120d8:	0ef12623          	sw	a5,236(sp)
   120dc:	0ed12423          	sw	a3,232(sp)
   120e0:	00700613          	li	a2,7
   120e4:	00888893          	addi	a7,a7,8
   120e8:	f4d65463          	bge	a2,a3,11830 <_vfprintf_r+0x12ec>
   120ec:	0e410613          	addi	a2,sp,228
   120f0:	000c0593          	mv	a1,s8
   120f4:	000d0513          	mv	a0,s10
   120f8:	2100a0ef          	jal	ra,1c308 <__sprint_r>
   120fc:	c8051c63          	bnez	a0,11594 <_vfprintf_r+0x1050>
   12100:	0ec12783          	lw	a5,236(sp)
   12104:	10c10893          	addi	a7,sp,268
   12108:	f28ff06f          	j	11830 <_vfprintf_r+0x12ec>
   1210c:	02012703          	lw	a4,32(sp)
   12110:	02412c83          	lw	s9,36(sp)
   12114:	01412e23          	sw	s4,28(sp)
   12118:	04812023          	sw	s0,64(sp)
   1211c:	05312223          	sw	s3,68(sp)
   12120:	03512223          	sw	s5,36(sp)
   12124:	02812983          	lw	s3,40(sp)
   12128:	03612423          	sw	s6,40(sp)
   1212c:	00eb0bb3          	add	s7,s6,a4
   12130:	03c12403          	lw	s0,60(sp)
   12134:	04812a03          	lw	s4,72(sp)
   12138:	04c12a83          	lw	s5,76(sp)
   1213c:	00700493          	li	s1,7
   12140:	01000913          	li	s2,16
   12144:	000c0b13          	mv	s6,s8
   12148:	080c8863          	beqz	s9,121d8 <_vfprintf_r+0x1c94>
   1214c:	08099863          	bnez	s3,121dc <_vfprintf_r+0x1c98>
   12150:	fff40413          	addi	s0,s0,-1
   12154:	fffc8c93          	addi	s9,s9,-1
   12158:	0e812703          	lw	a4,232(sp)
   1215c:	014787b3          	add	a5,a5,s4
   12160:	0158a023          	sw	s5,0(a7)
   12164:	00170713          	addi	a4,a4,1
   12168:	0148a223          	sw	s4,4(a7)
   1216c:	0ef12623          	sw	a5,236(sp)
   12170:	0ee12423          	sw	a4,232(sp)
   12174:	00888893          	addi	a7,a7,8
   12178:	0ee4ce63          	blt	s1,a4,12274 <_vfprintf_r+0x1d30>
   1217c:	00044683          	lbu	a3,0(s0)
   12180:	41bb8633          	sub	a2,s7,s11
   12184:	00068c13          	mv	s8,a3
   12188:	00d65463          	bge	a2,a3,12190 <_vfprintf_r+0x1c4c>
   1218c:	00060c13          	mv	s8,a2
   12190:	03805663          	blez	s8,121bc <_vfprintf_r+0x1c78>
   12194:	0e812683          	lw	a3,232(sp)
   12198:	018787b3          	add	a5,a5,s8
   1219c:	01b8a023          	sw	s11,0(a7)
   121a0:	00168693          	addi	a3,a3,1
   121a4:	0188a223          	sw	s8,4(a7)
   121a8:	0ef12623          	sw	a5,236(sp)
   121ac:	0ed12423          	sw	a3,232(sp)
   121b0:	0ed4c263          	blt	s1,a3,12294 <_vfprintf_r+0x1d50>
   121b4:	00044683          	lbu	a3,0(s0)
   121b8:	00888893          	addi	a7,a7,8
   121bc:	fffc4613          	not	a2,s8
   121c0:	41f65613          	srai	a2,a2,0x1f
   121c4:	00cc7733          	and	a4,s8,a2
   121c8:	40e68c33          	sub	s8,a3,a4
   121cc:	01804c63          	bgtz	s8,121e4 <_vfprintf_r+0x1ca0>
   121d0:	00dd8db3          	add	s11,s11,a3
   121d4:	f60c9ce3          	bnez	s9,1214c <_vfprintf_r+0x1c08>
   121d8:	5e098a63          	beqz	s3,127cc <_vfprintf_r+0x2288>
   121dc:	fff98993          	addi	s3,s3,-1
   121e0:	f79ff06f          	j	12158 <_vfprintf_r+0x1c14>
   121e4:	0e812683          	lw	a3,232(sp)
   121e8:	01894863          	blt	s2,s8,121f8 <_vfprintf_r+0x1cb4>
   121ec:	0580006f          	j	12244 <_vfprintf_r+0x1d00>
   121f0:	ff0c0c13          	addi	s8,s8,-16
   121f4:	05895863          	bge	s2,s8,12244 <_vfprintf_r+0x1d00>
   121f8:	00812703          	lw	a4,8(sp)
   121fc:	01078793          	addi	a5,a5,16
   12200:	00168693          	addi	a3,a3,1
   12204:	00e8a023          	sw	a4,0(a7)
   12208:	0128a223          	sw	s2,4(a7)
   1220c:	0ef12623          	sw	a5,236(sp)
   12210:	0ed12423          	sw	a3,232(sp)
   12214:	00888893          	addi	a7,a7,8
   12218:	fcd4dce3          	bge	s1,a3,121f0 <_vfprintf_r+0x1cac>
   1221c:	0e410613          	addi	a2,sp,228
   12220:	000b0593          	mv	a1,s6
   12224:	000d0513          	mv	a0,s10
   12228:	0e00a0ef          	jal	ra,1c308 <__sprint_r>
   1222c:	66051463          	bnez	a0,12894 <_vfprintf_r+0x2350>
   12230:	ff0c0c13          	addi	s8,s8,-16
   12234:	0ec12783          	lw	a5,236(sp)
   12238:	0e812683          	lw	a3,232(sp)
   1223c:	10c10893          	addi	a7,sp,268
   12240:	fb894ce3          	blt	s2,s8,121f8 <_vfprintf_r+0x1cb4>
   12244:	00812703          	lw	a4,8(sp)
   12248:	018787b3          	add	a5,a5,s8
   1224c:	00168693          	addi	a3,a3,1
   12250:	00e8a023          	sw	a4,0(a7)
   12254:	0188a223          	sw	s8,4(a7)
   12258:	0ef12623          	sw	a5,236(sp)
   1225c:	0ed12423          	sw	a3,232(sp)
   12260:	66d4c063          	blt	s1,a3,128c0 <_vfprintf_r+0x237c>
   12264:	00044683          	lbu	a3,0(s0)
   12268:	00888893          	addi	a7,a7,8
   1226c:	00dd8db3          	add	s11,s11,a3
   12270:	f65ff06f          	j	121d4 <_vfprintf_r+0x1c90>
   12274:	0e410613          	addi	a2,sp,228
   12278:	000b0593          	mv	a1,s6
   1227c:	000d0513          	mv	a0,s10
   12280:	0880a0ef          	jal	ra,1c308 <__sprint_r>
   12284:	60051863          	bnez	a0,12894 <_vfprintf_r+0x2350>
   12288:	0ec12783          	lw	a5,236(sp)
   1228c:	10c10893          	addi	a7,sp,268
   12290:	eedff06f          	j	1217c <_vfprintf_r+0x1c38>
   12294:	0e410613          	addi	a2,sp,228
   12298:	000b0593          	mv	a1,s6
   1229c:	000d0513          	mv	a0,s10
   122a0:	0680a0ef          	jal	ra,1c308 <__sprint_r>
   122a4:	5e051863          	bnez	a0,12894 <_vfprintf_r+0x2350>
   122a8:	00044683          	lbu	a3,0(s0)
   122ac:	0ec12783          	lw	a5,236(sp)
   122b0:	10c10893          	addi	a7,sp,268
   122b4:	f09ff06f          	j	121bc <_vfprintf_r+0x1c78>
   122b8:	04812783          	lw	a5,72(sp)
   122bc:	04c12583          	lw	a1,76(sp)
   122c0:	00000913          	li	s2,0
   122c4:	40f40433          	sub	s0,s0,a5
   122c8:	00078613          	mv	a2,a5
   122cc:	00040513          	mv	a0,s0
   122d0:	464070ef          	jal	ra,19734 <strncpy>
   122d4:	001cc583          	lbu	a1,1(s9)
   122d8:	00a00613          	li	a2,10
   122dc:	00000693          	li	a3,0
   122e0:	00b03833          	snez	a6,a1
   122e4:	00048513          	mv	a0,s1
   122e8:	00098593          	mv	a1,s3
   122ec:	010c8cb3          	add	s9,s9,a6
   122f0:	6840d0ef          	jal	ra,1f974 <__udivdi3>
   122f4:	ae5ff06f          	j	11dd8 <_vfprintf_r+0x1894>
   122f8:	00168693          	addi	a3,a3,1
   122fc:	00870893          	addi	a7,a4,8
   12300:	00070913          	mv	s2,a4
   12304:	b98ff06f          	j	1169c <_vfprintf_r+0x1158>
   12308:	0e410613          	addi	a2,sp,228
   1230c:	000c0593          	mv	a1,s8
   12310:	000d0513          	mv	a0,s10
   12314:	7f5090ef          	jal	ra,1c308 <__sprint_r>
   12318:	a6051e63          	bnez	a0,11594 <_vfprintf_r+0x1050>
   1231c:	0cc12583          	lw	a1,204(sp)
   12320:	0ec12783          	lw	a5,236(sp)
   12324:	10c10893          	addi	a7,sp,268
   12328:	b5dff06f          	j	11e84 <_vfprintf_r+0x1940>
   1232c:	00025737          	lui	a4,0x25
   12330:	80470b13          	addi	s6,a4,-2044 # 24804 <__clzsi2+0x68>
   12334:	c75ff06f          	j	11fa8 <_vfprintf_r+0x1a64>
   12338:	0e410613          	addi	a2,sp,228
   1233c:	000c0593          	mv	a1,s8
   12340:	000d0513          	mv	a0,s10
   12344:	7c5090ef          	jal	ra,1c308 <__sprint_r>
   12348:	a4051663          	bnez	a0,11594 <_vfprintf_r+0x1050>
   1234c:	0ec12783          	lw	a5,236(sp)
   12350:	10c10893          	addi	a7,sp,268
   12354:	cc4ff06f          	j	11818 <_vfprintf_r+0x12d4>
   12358:	00600c93          	li	s9,6
   1235c:	945ff06f          	j	11ca0 <_vfprintf_r+0x175c>
   12360:	02012683          	lw	a3,32(sp)
   12364:	00db0733          	add	a4,s6,a3
   12368:	409684b3          	sub	s1,a3,s1
   1236c:	41b70833          	sub	a6,a4,s11
   12370:	00048913          	mv	s2,s1
   12374:	d6985063          	bge	a6,s1,118d4 <_vfprintf_r+0x1390>
   12378:	00080913          	mv	s2,a6
   1237c:	d58ff06f          	j	118d4 <_vfprintf_r+0x1390>
   12380:	00c12783          	lw	a5,12(sp)
   12384:	00040b13          	mv	s6,s0
   12388:	00f71023          	sh	a5,0(a4)
   1238c:	d08fe06f          	j	10894 <_vfprintf_r+0x350>
   12390:	01412783          	lw	a5,20(sp)
   12394:	00000c93          	li	s9,0
   12398:	00e12a23          	sw	a4,20(sp)
   1239c:	0007a903          	lw	s2,0(a5)
   123a0:	d91fe06f          	j	11130 <_vfprintf_r+0xbec>
   123a4:	01412783          	lw	a5,20(sp)
   123a8:	00e12a23          	sw	a4,20(sp)
   123ac:	0007a903          	lw	s2,0(a5)
   123b0:	41f95c93          	srai	s9,s2,0x1f
   123b4:	000c8793          	mv	a5,s9
   123b8:	df5fe06f          	j	111ac <_vfprintf_r+0xc68>
   123bc:	01412783          	lw	a5,20(sp)
   123c0:	00000c93          	li	s9,0
   123c4:	00e12a23          	sw	a4,20(sp)
   123c8:	0007a903          	lw	s2,0(a5)
   123cc:	00100793          	li	a5,1
   123d0:	c25fe06f          	j	10ff4 <_vfprintf_r+0xab0>
   123d4:	01412783          	lw	a5,20(sp)
   123d8:	00000c93          	li	s9,0
   123dc:	00e12a23          	sw	a4,20(sp)
   123e0:	0007a903          	lw	s2,0(a5)
   123e4:	829ff06f          	j	11c0c <_vfprintf_r+0x16c8>
   123e8:	0e410613          	addi	a2,sp,228
   123ec:	000c0593          	mv	a1,s8
   123f0:	000d0513          	mv	a0,s10
   123f4:	715090ef          	jal	ra,1c308 <__sprint_r>
   123f8:	cb0fe06f          	j	108a8 <_vfprintf_r+0x364>
   123fc:	02d00793          	li	a5,45
   12400:	0cf103a3          	sb	a5,199(sp)
   12404:	cadff06f          	j	120b0 <_vfprintf_r+0x1b6c>
   12408:	03000793          	li	a5,48
   1240c:	0cf10423          	sb	a5,200(sp)
   12410:	05800793          	li	a5,88
   12414:	002a6713          	ori	a4,s4,2
   12418:	0cf104a3          	sb	a5,201(sp)
   1241c:	02e12423          	sw	a4,40(sp)
   12420:	06300793          	li	a5,99
   12424:	00012823          	sw	zero,16(sp)
   12428:	14c10b13          	addi	s6,sp,332
   1242c:	03b7c4e3          	blt	a5,s11,12c54 <_vfprintf_r+0x2710>
   12430:	0fc12303          	lw	t1,252(sp)
   12434:	fdf4fb93          	andi	s7,s1,-33
   12438:	05712223          	sw	s7,68(sp)
   1243c:	04012c23          	sw	zero,88(sp)
   12440:	0f012e03          	lw	t3,240(sp)
   12444:	0f412e83          	lw	t4,244(sp)
   12448:	0f812f03          	lw	t5,248(sp)
   1244c:	102a6a13          	ori	s4,s4,258
   12450:	44034e63          	bltz	t1,128ac <_vfprintf_r+0x2368>
   12454:	06100793          	li	a5,97
   12458:	0af48ee3          	beq	s1,a5,12d14 <_vfprintf_r+0x27d0>
   1245c:	04100793          	li	a5,65
   12460:	00f48463          	beq	s1,a5,12468 <_vfprintf_r+0x1f24>
   12464:	e44fe06f          	j	10aa8 <_vfprintf_r+0x564>
   12468:	0b010a93          	addi	s5,sp,176
   1246c:	000a8513          	mv	a0,s5
   12470:	05112a23          	sw	a7,84(sp)
   12474:	0bc12823          	sw	t3,176(sp)
   12478:	0bd12a23          	sw	t4,180(sp)
   1247c:	0be12c23          	sw	t5,184(sp)
   12480:	0a612e23          	sw	t1,188(sp)
   12484:	6f5110ef          	jal	ra,24378 <__trunctfdf2>
   12488:	0cc10613          	addi	a2,sp,204
   1248c:	6b5060ef          	jal	ra,19340 <frexp>
   12490:	00058613          	mv	a2,a1
   12494:	00050593          	mv	a1,a0
   12498:	000a8513          	mv	a0,s5
   1249c:	4ed110ef          	jal	ra,24188 <__extenddftf2>
   124a0:	0b012783          	lw	a5,176(sp)
   124a4:	0a010c93          	addi	s9,sp,160
   124a8:	09010913          	addi	s2,sp,144
   124ac:	08f12823          	sw	a5,144(sp)
   124b0:	0b412783          	lw	a5,180(sp)
   124b4:	08010613          	addi	a2,sp,128
   124b8:	00090593          	mv	a1,s2
   124bc:	08f12a23          	sw	a5,148(sp)
   124c0:	0b812783          	lw	a5,184(sp)
   124c4:	000c8513          	mv	a0,s9
   124c8:	04c12023          	sw	a2,64(sp)
   124cc:	08f12c23          	sw	a5,152(sp)
   124d0:	0bc12783          	lw	a5,188(sp)
   124d4:	08012023          	sw	zero,128(sp)
   124d8:	08012223          	sw	zero,132(sp)
   124dc:	08f12e23          	sw	a5,156(sp)
   124e0:	3ffc07b7          	lui	a5,0x3ffc0
   124e4:	08f12623          	sw	a5,140(sp)
   124e8:	08012423          	sw	zero,136(sp)
   124ec:	0fc0f0ef          	jal	ra,215e8 <__multf3>
   124f0:	0a012803          	lw	a6,160(sp)
   124f4:	0a412e03          	lw	t3,164(sp)
   124f8:	0a812e83          	lw	t4,168(sp)
   124fc:	0ac12f03          	lw	t5,172(sp)
   12500:	000c8593          	mv	a1,s9
   12504:	000a8513          	mv	a0,s5
   12508:	0b012823          	sw	a6,176(sp)
   1250c:	05012823          	sw	a6,80(sp)
   12510:	0bc12a23          	sw	t3,180(sp)
   12514:	03c12223          	sw	t3,36(sp)
   12518:	0bd12c23          	sw	t4,184(sp)
   1251c:	03d12023          	sw	t4,32(sp)
   12520:	0be12e23          	sw	t5,188(sp)
   12524:	01e12e23          	sw	t5,28(sp)
   12528:	0a012023          	sw	zero,160(sp)
   1252c:	0a012223          	sw	zero,164(sp)
   12530:	0a012423          	sw	zero,168(sp)
   12534:	0a012623          	sw	zero,172(sp)
   12538:	55d0e0ef          	jal	ra,21294 <__eqtf2>
   1253c:	01c12f03          	lw	t5,28(sp)
   12540:	02012e83          	lw	t4,32(sp)
   12544:	02412e03          	lw	t3,36(sp)
   12548:	05012803          	lw	a6,80(sp)
   1254c:	05412883          	lw	a7,84(sp)
   12550:	00051663          	bnez	a0,1255c <_vfprintf_r+0x2018>
   12554:	00100793          	li	a5,1
   12558:	0cf12623          	sw	a5,204(sp)
   1255c:	000257b7          	lui	a5,0x25
   12560:	82878793          	addi	a5,a5,-2008 # 24828 <__clzsi2+0x8c>
   12564:	02f12223          	sw	a5,36(sp)
   12568:	fffd8693          	addi	a3,s11,-1
   1256c:	05412e23          	sw	s4,92(sp)
   12570:	06912223          	sw	s1,100(sp)
   12574:	07b12623          	sw	s11,108(sp)
   12578:	07a12a23          	sw	s10,116(sp)
   1257c:	07812c23          	sw	s8,120(sp)
   12580:	06812023          	sw	s0,96(sp)
   12584:	07312423          	sw	s3,104(sp)
   12588:	07112823          	sw	a7,112(sp)
   1258c:	000b0c13          	mv	s8,s6
   12590:	00068b93          	mv	s7,a3
   12594:	07612e23          	sw	s6,124(sp)
   12598:	00080d13          	mv	s10,a6
   1259c:	000e0d93          	mv	s11,t3
   125a0:	000e8493          	mv	s1,t4
   125a4:	000f0a13          	mv	s4,t5
   125a8:	0480006f          	j	125f0 <_vfprintf_r+0x20ac>
   125ac:	000c8593          	mv	a1,s9
   125b0:	000a8513          	mv	a0,s5
   125b4:	02c12023          	sw	a2,32(sp)
   125b8:	01f12e23          	sw	t6,28(sp)
   125bc:	0bf12c23          	sw	t6,184(sp)
   125c0:	0ac12e23          	sw	a2,188(sp)
   125c4:	0b612823          	sw	s6,176(sp)
   125c8:	0b312a23          	sw	s3,180(sp)
   125cc:	0a012023          	sw	zero,160(sp)
   125d0:	0a012223          	sw	zero,164(sp)
   125d4:	0a012423          	sw	zero,168(sp)
   125d8:	0a012623          	sw	zero,172(sp)
   125dc:	4b90e0ef          	jal	ra,21294 <__eqtf2>
   125e0:	01c12f83          	lw	t6,28(sp)
   125e4:	02012603          	lw	a2,32(sp)
   125e8:	fffb8b93          	addi	s7,s7,-1
   125ec:	0e050263          	beqz	a0,126d0 <_vfprintf_r+0x218c>
   125f0:	400307b7          	lui	a5,0x40030
   125f4:	00090613          	mv	a2,s2
   125f8:	000c8593          	mv	a1,s9
   125fc:	000a8513          	mv	a0,s5
   12600:	08f12e23          	sw	a5,156(sp)
   12604:	0ba12023          	sw	s10,160(sp)
   12608:	0bb12223          	sw	s11,164(sp)
   1260c:	0a912423          	sw	s1,168(sp)
   12610:	0b412623          	sw	s4,172(sp)
   12614:	08012823          	sw	zero,144(sp)
   12618:	08012a23          	sw	zero,148(sp)
   1261c:	08012c23          	sw	zero,152(sp)
   12620:	7c90e0ef          	jal	ra,215e8 <__multf3>
   12624:	000a8513          	mv	a0,s5
   12628:	0fd110ef          	jal	ra,23f24 <__fixtfsi>
   1262c:	00050593          	mv	a1,a0
   12630:	00050413          	mv	s0,a0
   12634:	000a8513          	mv	a0,s5
   12638:	0b012983          	lw	s3,176(sp)
   1263c:	0b412483          	lw	s1,180(sp)
   12640:	0b812b03          	lw	s6,184(sp)
   12644:	0bc12a03          	lw	s4,188(sp)
   12648:	1f1110ef          	jal	ra,24038 <__floatsitf>
   1264c:	0b012703          	lw	a4,176(sp)
   12650:	04012603          	lw	a2,64(sp)
   12654:	00090593          	mv	a1,s2
   12658:	08e12023          	sw	a4,128(sp)
   1265c:	0b412703          	lw	a4,180(sp)
   12660:	000c8513          	mv	a0,s9
   12664:	09312823          	sw	s3,144(sp)
   12668:	08e12223          	sw	a4,132(sp)
   1266c:	0b812703          	lw	a4,184(sp)
   12670:	08912a23          	sw	s1,148(sp)
   12674:	09612c23          	sw	s6,152(sp)
   12678:	08e12423          	sw	a4,136(sp)
   1267c:	0bc12703          	lw	a4,188(sp)
   12680:	09412e23          	sw	s4,156(sp)
   12684:	08e12623          	sw	a4,140(sp)
   12688:	2fc100ef          	jal	ra,22984 <__subtf3>
   1268c:	02412783          	lw	a5,36(sp)
   12690:	0a012b03          	lw	s6,160(sp)
   12694:	0a412983          	lw	s3,164(sp)
   12698:	00878733          	add	a4,a5,s0
   1269c:	00074703          	lbu	a4,0(a4)
   126a0:	0a812f83          	lw	t6,168(sp)
   126a4:	0ac12603          	lw	a2,172(sp)
   126a8:	05812a23          	sw	s8,84(sp)
   126ac:	00ec0023          	sb	a4,0(s8)
   126b0:	05712823          	sw	s7,80(sp)
   126b4:	fff00793          	li	a5,-1
   126b8:	001c0c13          	addi	s8,s8,1
   126bc:	000b0d13          	mv	s10,s6
   126c0:	00098d93          	mv	s11,s3
   126c4:	000f8493          	mv	s1,t6
   126c8:	00060a13          	mv	s4,a2
   126cc:	eefb90e3          	bne	s7,a5,125ac <_vfprintf_r+0x2068>
   126d0:	07012883          	lw	a7,112(sp)
   126d4:	000b0393          	mv	t2,s6
   126d8:	00098293          	mv	t0,s3
   126dc:	3ffe0937          	lui	s2,0x3ffe0
   126e0:	000c8593          	mv	a1,s9
   126e4:	000a8513          	mv	a0,s5
   126e8:	03112023          	sw	a7,32(sp)
   126ec:	00812e23          	sw	s0,28(sp)
   126f0:	05c12a03          	lw	s4,92(sp)
   126f4:	06412483          	lw	s1,100(sp)
   126f8:	06012403          	lw	s0,96(sp)
   126fc:	0a712823          	sw	t2,176(sp)
   12700:	06712223          	sw	t2,100(sp)
   12704:	0a512a23          	sw	t0,180(sp)
   12708:	06512023          	sw	t0,96(sp)
   1270c:	0bf12c23          	sw	t6,184(sp)
   12710:	05f12e23          	sw	t6,92(sp)
   12714:	0ac12e23          	sw	a2,188(sp)
   12718:	04c12023          	sw	a2,64(sp)
   1271c:	0a012023          	sw	zero,160(sp)
   12720:	0a012223          	sw	zero,164(sp)
   12724:	0a012423          	sw	zero,168(sp)
   12728:	0b212623          	sw	s2,172(sp)
   1272c:	4350e0ef          	jal	ra,21360 <__getf2>
   12730:	000c0b93          	mv	s7,s8
   12734:	06c12d83          	lw	s11,108(sp)
   12738:	07412d03          	lw	s10,116(sp)
   1273c:	07812c03          	lw	s8,120(sp)
   12740:	07c12b03          	lw	s6,124(sp)
   12744:	06812983          	lw	s3,104(sp)
   12748:	02012883          	lw	a7,32(sp)
   1274c:	48a04263          	bgtz	a0,12bd0 <_vfprintf_r+0x268c>
   12750:	06412383          	lw	t2,100(sp)
   12754:	06012283          	lw	t0,96(sp)
   12758:	05c12f83          	lw	t6,92(sp)
   1275c:	04012603          	lw	a2,64(sp)
   12760:	000c8593          	mv	a1,s9
   12764:	000a8513          	mv	a0,s5
   12768:	0a712823          	sw	t2,176(sp)
   1276c:	0a512a23          	sw	t0,180(sp)
   12770:	0bf12c23          	sw	t6,184(sp)
   12774:	0ac12e23          	sw	a2,188(sp)
   12778:	0a012023          	sw	zero,160(sp)
   1277c:	0a012223          	sw	zero,164(sp)
   12780:	0a012423          	sw	zero,168(sp)
   12784:	0b212623          	sw	s2,172(sp)
   12788:	30d0e0ef          	jal	ra,21294 <__eqtf2>
   1278c:	02012883          	lw	a7,32(sp)
   12790:	00051863          	bnez	a0,127a0 <_vfprintf_r+0x225c>
   12794:	01c12783          	lw	a5,28(sp)
   12798:	0017fc93          	andi	s9,a5,1
   1279c:	420c9a63          	bnez	s9,12bd0 <_vfprintf_r+0x268c>
   127a0:	05012783          	lw	a5,80(sp)
   127a4:	03000613          	li	a2,48
   127a8:	00178693          	addi	a3,a5,1 # 40030001 <__BSS_END__+0x40009031>
   127ac:	00db86b3          	add	a3,s7,a3
   127b0:	0007c863          	bltz	a5,127c0 <_vfprintf_r+0x227c>
   127b4:	001b8b93          	addi	s7,s7,1
   127b8:	fecb8fa3          	sb	a2,-1(s7)
   127bc:	ff769ce3          	bne	a3,s7,127b4 <_vfprintf_r+0x2270>
   127c0:	416b87b3          	sub	a5,s7,s6
   127c4:	02f12023          	sw	a5,32(sp)
   127c8:	bc8fe06f          	j	10b90 <_vfprintf_r+0x64c>
   127cc:	02012703          	lw	a4,32(sp)
   127d0:	000b0c13          	mv	s8,s6
   127d4:	02812b03          	lw	s6,40(sp)
   127d8:	02812e23          	sw	s0,60(sp)
   127dc:	01c12a03          	lw	s4,28(sp)
   127e0:	00eb06b3          	add	a3,s6,a4
   127e4:	04012403          	lw	s0,64(sp)
   127e8:	04412983          	lw	s3,68(sp)
   127ec:	02412a83          	lw	s5,36(sp)
   127f0:	01b6e463          	bltu	a3,s11,127f8 <_vfprintf_r+0x22b4>
   127f4:	84cff06f          	j	11840 <_vfprintf_r+0x12fc>
   127f8:	00068d93          	mv	s11,a3
   127fc:	844ff06f          	j	11840 <_vfprintf_r+0x12fc>
   12800:	01c12703          	lw	a4,28(sp)
   12804:	ffd00793          	li	a5,-3
   12808:	00f74463          	blt	a4,a5,12810 <_vfprintf_r+0x22cc>
   1280c:	00edda63          	bge	s11,a4,12820 <_vfprintf_r+0x22dc>
   12810:	ffe48493          	addi	s1,s1,-2
   12814:	fdf4f793          	andi	a5,s1,-33
   12818:	04f12223          	sw	a5,68(sp)
   1281c:	b9cfe06f          	j	10bb8 <_vfprintf_r+0x674>
   12820:	02012783          	lw	a5,32(sp)
   12824:	01c12703          	lw	a4,28(sp)
   12828:	2af74063          	blt	a4,a5,12ac8 <_vfprintf_r+0x2584>
   1282c:	02812783          	lw	a5,40(sp)
   12830:	00070c93          	mv	s9,a4
   12834:	0017f793          	andi	a5,a5,1
   12838:	00078663          	beqz	a5,12844 <_vfprintf_r+0x2300>
   1283c:	02c12783          	lw	a5,44(sp)
   12840:	00f70cb3          	add	s9,a4,a5
   12844:	02812783          	lw	a5,40(sp)
   12848:	4007f793          	andi	a5,a5,1024
   1284c:	00078663          	beqz	a5,12858 <_vfprintf_r+0x2314>
   12850:	01c12783          	lw	a5,28(sp)
   12854:	5cf04263          	bgtz	a5,12e18 <_vfprintf_r+0x28d4>
   12858:	fffcca93          	not	s5,s9
   1285c:	41fada93          	srai	s5,s5,0x1f
   12860:	015cfab3          	and	s5,s9,s5
   12864:	06700493          	li	s1,103
   12868:	02012423          	sw	zero,40(sp)
   1286c:	02012223          	sw	zero,36(sp)
   12870:	c84fe06f          	j	10cf4 <_vfprintf_r+0x7b0>
   12874:	0c714783          	lbu	a5,199(sp)
   12878:	00000d93          	li	s11,0
   1287c:	00078463          	beqz	a5,12884 <_vfprintf_r+0x2340>
   12880:	ec0fe06f          	j	10f40 <_vfprintf_r+0x9fc>
   12884:	ef9fd06f          	j	1077c <_vfprintf_r+0x238>
   12888:	00900793          	li	a5,9
   1288c:	d497e663          	bltu	a5,s1,11dd8 <_vfprintf_r+0x1894>
   12890:	d90ff06f          	j	11e20 <_vfprintf_r+0x18dc>
   12894:	01012b83          	lw	s7,16(sp)
   12898:	000b0c13          	mv	s8,s6
   1289c:	cfdfe06f          	j	11598 <_vfprintf_r+0x1054>
   128a0:	03412423          	sw	s4,40(sp)
   128a4:	00012823          	sw	zero,16(sp)
   128a8:	00090a13          	mv	s4,s2
   128ac:	800007b7          	lui	a5,0x80000
   128b0:	0067c333          	xor	t1,a5,t1
   128b4:	02d00793          	li	a5,45
   128b8:	04f12c23          	sw	a5,88(sp)
   128bc:	b99ff06f          	j	12454 <_vfprintf_r+0x1f10>
   128c0:	0e410613          	addi	a2,sp,228
   128c4:	000b0593          	mv	a1,s6
   128c8:	000d0513          	mv	a0,s10
   128cc:	23d090ef          	jal	ra,1c308 <__sprint_r>
   128d0:	fc0512e3          	bnez	a0,12894 <_vfprintf_r+0x2350>
   128d4:	00044683          	lbu	a3,0(s0)
   128d8:	0ec12783          	lw	a5,236(sp)
   128dc:	10c10893          	addi	a7,sp,268
   128e0:	00dd8db3          	add	s11,s11,a3
   128e4:	8f1ff06f          	j	121d4 <_vfprintf_r+0x1c90>
   128e8:	0b010a93          	addi	s5,sp,176
   128ec:	0d010793          	addi	a5,sp,208
   128f0:	0dc10813          	addi	a6,sp,220
   128f4:	0cc10713          	addi	a4,sp,204
   128f8:	000d8693          	mv	a3,s11
   128fc:	00200613          	li	a2,2
   12900:	000a8593          	mv	a1,s5
   12904:	000d0513          	mv	a0,s10
   12908:	0bc12823          	sw	t3,176(sp)
   1290c:	05c12023          	sw	t3,64(sp)
   12910:	0bd12a23          	sw	t4,180(sp)
   12914:	03d12223          	sw	t4,36(sp)
   12918:	0be12c23          	sw	t5,184(sp)
   1291c:	03e12023          	sw	t5,32(sp)
   12920:	0a612e23          	sw	t1,188(sp)
   12924:	00612e23          	sw	t1,28(sp)
   12928:	3d8030ef          	jal	ra,15d00 <_ldtoa_r>
   1292c:	04700793          	li	a5,71
   12930:	01c12303          	lw	t1,28(sp)
   12934:	02012f03          	lw	t5,32(sp)
   12938:	02412e83          	lw	t4,36(sp)
   1293c:	04012e03          	lw	t3,64(sp)
   12940:	05012883          	lw	a7,80(sp)
   12944:	00050b13          	mv	s6,a0
   12948:	08fb9063          	bne	s7,a5,129c8 <_vfprintf_r+0x2484>
   1294c:	02812783          	lw	a5,40(sp)
   12950:	0017f793          	andi	a5,a5,1
   12954:	2e079663          	bnez	a5,12c40 <_vfprintf_r+0x26fc>
   12958:	04700793          	li	a5,71
   1295c:	0dc12703          	lw	a4,220(sp)
   12960:	04f12223          	sw	a5,68(sp)
   12964:	a24fe06f          	j	10b88 <_vfprintf_r+0x644>
   12968:	0b010a93          	addi	s5,sp,176
   1296c:	0dc10813          	addi	a6,sp,220
   12970:	0d010793          	addi	a5,sp,208
   12974:	0cc10713          	addi	a4,sp,204
   12978:	000d8693          	mv	a3,s11
   1297c:	00300613          	li	a2,3
   12980:	000a8593          	mv	a1,s5
   12984:	000d0513          	mv	a0,s10
   12988:	05112823          	sw	a7,80(sp)
   1298c:	0bc12823          	sw	t3,176(sp)
   12990:	05c12023          	sw	t3,64(sp)
   12994:	0bd12a23          	sw	t4,180(sp)
   12998:	03d12223          	sw	t4,36(sp)
   1299c:	0be12c23          	sw	t5,184(sp)
   129a0:	03e12023          	sw	t5,32(sp)
   129a4:	0a612e23          	sw	t1,188(sp)
   129a8:	00612e23          	sw	t1,28(sp)
   129ac:	354030ef          	jal	ra,15d00 <_ldtoa_r>
   129b0:	01c12303          	lw	t1,28(sp)
   129b4:	02012f03          	lw	t5,32(sp)
   129b8:	02412e83          	lw	t4,36(sp)
   129bc:	04012e03          	lw	t3,64(sp)
   129c0:	05012883          	lw	a7,80(sp)
   129c4:	00050b13          	mv	s6,a0
   129c8:	04600793          	li	a5,70
   129cc:	01bb0933          	add	s2,s6,s11
   129d0:	26fb9e63          	bne	s7,a5,12c4c <_vfprintf_r+0x2708>
   129d4:	000b4683          	lbu	a3,0(s6)
   129d8:	03000793          	li	a5,48
   129dc:	50f68a63          	beq	a3,a5,12ef0 <_vfprintf_r+0x29ac>
   129e0:	0a010c93          	addi	s9,sp,160
   129e4:	0cc12783          	lw	a5,204(sp)
   129e8:	00f90933          	add	s2,s2,a5
   129ec:	940fe06f          	j	10b2c <_vfprintf_r+0x5e8>
   129f0:	02d00793          	li	a5,45
   129f4:	0cf103a3          	sb	a5,199(sp)
   129f8:	da0ff06f          	j	11f98 <_vfprintf_r+0x1a54>
   129fc:	0e410613          	addi	a2,sp,228
   12a00:	000c0593          	mv	a1,s8
   12a04:	000d0513          	mv	a0,s10
   12a08:	101090ef          	jal	ra,1c308 <__sprint_r>
   12a0c:	00050463          	beqz	a0,12a14 <_vfprintf_r+0x24d0>
   12a10:	b85fe06f          	j	11594 <_vfprintf_r+0x1050>
   12a14:	0cc12483          	lw	s1,204(sp)
   12a18:	0ec12783          	lw	a5,236(sp)
   12a1c:	10c10893          	addi	a7,sp,268
   12a20:	e69fe06f          	j	11888 <_vfprintf_r+0x1344>
   12a24:	0c714783          	lbu	a5,199(sp)
   12a28:	01212a23          	sw	s2,20(sp)
   12a2c:	02012423          	sw	zero,40(sp)
   12a30:	02012223          	sw	zero,36(sp)
   12a34:	00012e23          	sw	zero,28(sp)
   12a38:	000d8a93          	mv	s5,s11
   12a3c:	000d8c93          	mv	s9,s11
   12a40:	00000d93          	li	s11,0
   12a44:	00078463          	beqz	a5,12a4c <_vfprintf_r+0x2508>
   12a48:	cf8fe06f          	j	10f40 <_vfprintf_r+0x9fc>
   12a4c:	d31fd06f          	j	1077c <_vfprintf_r+0x238>
   12a50:	02812783          	lw	a5,40(sp)
   12a54:	01c12703          	lw	a4,28(sp)
   12a58:	0017f793          	andi	a5,a5,1
   12a5c:	01b7e7b3          	or	a5,a5,s11
   12a60:	50e05a63          	blez	a4,12f74 <_vfprintf_r+0x2a30>
   12a64:	44079463          	bnez	a5,12eac <_vfprintf_r+0x2968>
   12a68:	01c12c83          	lw	s9,28(sp)
   12a6c:	06600493          	li	s1,102
   12a70:	02812783          	lw	a5,40(sp)
   12a74:	4007f793          	andi	a5,a5,1024
   12a78:	3a079263          	bnez	a5,12e1c <_vfprintf_r+0x28d8>
   12a7c:	fffcca93          	not	s5,s9
   12a80:	41fada93          	srai	s5,s5,0x1f
   12a84:	015cfab3          	and	s5,s9,s5
   12a88:	de1ff06f          	j	12868 <_vfprintf_r+0x2324>
   12a8c:	00025737          	lui	a4,0x25
   12a90:	80c70b13          	addi	s6,a4,-2036 # 2480c <__clzsi2+0x70>
   12a94:	d14ff06f          	j	11fa8 <_vfprintf_r+0x1a64>
   12a98:	0e410613          	addi	a2,sp,228
   12a9c:	000c0593          	mv	a1,s8
   12aa0:	000d0513          	mv	a0,s10
   12aa4:	065090ef          	jal	ra,1c308 <__sprint_r>
   12aa8:	00050463          	beqz	a0,12ab0 <_vfprintf_r+0x256c>
   12aac:	ae9fe06f          	j	11594 <_vfprintf_r+0x1050>
   12ab0:	0cc12483          	lw	s1,204(sp)
   12ab4:	02012703          	lw	a4,32(sp)
   12ab8:	0ec12783          	lw	a5,236(sp)
   12abc:	10c10893          	addi	a7,sp,268
   12ac0:	409704b3          	sub	s1,a4,s1
   12ac4:	e11fe06f          	j	118d4 <_vfprintf_r+0x1390>
   12ac8:	02012783          	lw	a5,32(sp)
   12acc:	02c12703          	lw	a4,44(sp)
   12ad0:	06700493          	li	s1,103
   12ad4:	00e78cb3          	add	s9,a5,a4
   12ad8:	01c12783          	lw	a5,28(sp)
   12adc:	f8f04ae3          	bgtz	a5,12a70 <_vfprintf_r+0x252c>
   12ae0:	40fc8cb3          	sub	s9,s9,a5
   12ae4:	001c8c93          	addi	s9,s9,1
   12ae8:	fffcca93          	not	s5,s9
   12aec:	41fada93          	srai	s5,s5,0x1f
   12af0:	015cfab3          	and	s5,s9,s5
   12af4:	d75ff06f          	j	12868 <_vfprintf_r+0x2324>
   12af8:	000256b7          	lui	a3,0x25
   12afc:	9b468e93          	addi	t4,a3,-1612 # 249b4 <blanks.4483>
   12b00:	b50fe06f          	j	10e50 <_vfprintf_r+0x90c>
   12b04:	fff00793          	li	a5,-1
   12b08:	00f12623          	sw	a5,12(sp)
   12b0c:	dadfd06f          	j	108b8 <_vfprintf_r+0x374>
   12b10:	ff000613          	li	a2,-16
   12b14:	40b004b3          	neg	s1,a1
   12b18:	06c5d263          	bge	a1,a2,12b7c <_vfprintf_r+0x2638>
   12b1c:	01000913          	li	s2,16
   12b20:	00700c93          	li	s9,7
   12b24:	00c0006f          	j	12b30 <_vfprintf_r+0x25ec>
   12b28:	ff048493          	addi	s1,s1,-16
   12b2c:	04995863          	bge	s2,s1,12b7c <_vfprintf_r+0x2638>
   12b30:	00812703          	lw	a4,8(sp)
   12b34:	01078793          	addi	a5,a5,16 # 80000010 <__BSS_END__+0x7ffd9040>
   12b38:	00168693          	addi	a3,a3,1
   12b3c:	00e8a023          	sw	a4,0(a7)
   12b40:	0128a223          	sw	s2,4(a7)
   12b44:	0ef12623          	sw	a5,236(sp)
   12b48:	0ed12423          	sw	a3,232(sp)
   12b4c:	00888893          	addi	a7,a7,8
   12b50:	fcdcdce3          	bge	s9,a3,12b28 <_vfprintf_r+0x25e4>
   12b54:	0e410613          	addi	a2,sp,228
   12b58:	000c0593          	mv	a1,s8
   12b5c:	000d0513          	mv	a0,s10
   12b60:	7a8090ef          	jal	ra,1c308 <__sprint_r>
   12b64:	00050463          	beqz	a0,12b6c <_vfprintf_r+0x2628>
   12b68:	a2dfe06f          	j	11594 <_vfprintf_r+0x1050>
   12b6c:	0ec12783          	lw	a5,236(sp)
   12b70:	0e812683          	lw	a3,232(sp)
   12b74:	10c10893          	addi	a7,sp,268
   12b78:	fb1ff06f          	j	12b28 <_vfprintf_r+0x25e4>
   12b7c:	00812703          	lw	a4,8(sp)
   12b80:	009787b3          	add	a5,a5,s1
   12b84:	00168693          	addi	a3,a3,1
   12b88:	00e8a023          	sw	a4,0(a7)
   12b8c:	0098a223          	sw	s1,4(a7)
   12b90:	0ef12623          	sw	a5,236(sp)
   12b94:	0ed12423          	sw	a3,232(sp)
   12b98:	00700613          	li	a2,7
   12b9c:	b2d65a63          	bge	a2,a3,11ed0 <_vfprintf_r+0x198c>
   12ba0:	0e410613          	addi	a2,sp,228
   12ba4:	000c0593          	mv	a1,s8
   12ba8:	000d0513          	mv	a0,s10
   12bac:	75c090ef          	jal	ra,1c308 <__sprint_r>
   12bb0:	00050463          	beqz	a0,12bb8 <_vfprintf_r+0x2674>
   12bb4:	9e1fe06f          	j	11594 <_vfprintf_r+0x1050>
   12bb8:	0ec12783          	lw	a5,236(sp)
   12bbc:	0e812683          	lw	a3,232(sp)
   12bc0:	10c10893          	addi	a7,sp,268
   12bc4:	9ccfe06f          	j	10d90 <_vfprintf_r+0x84c>
   12bc8:	000a0b93          	mv	s7,s4
   12bcc:	e20fe06f          	j	111ec <_vfprintf_r+0xca8>
   12bd0:	05412783          	lw	a5,84(sp)
   12bd4:	000b8693          	mv	a3,s7
   12bd8:	0cf12e23          	sw	a5,220(sp)
   12bdc:	02412783          	lw	a5,36(sp)
   12be0:	fffbc603          	lbu	a2,-1(s7)
   12be4:	00f7c583          	lbu	a1,15(a5)
   12be8:	02b61063          	bne	a2,a1,12c08 <_vfprintf_r+0x26c4>
   12bec:	03000513          	li	a0,48
   12bf0:	fea68fa3          	sb	a0,-1(a3)
   12bf4:	0dc12683          	lw	a3,220(sp)
   12bf8:	fff68793          	addi	a5,a3,-1
   12bfc:	0cf12e23          	sw	a5,220(sp)
   12c00:	fff6c603          	lbu	a2,-1(a3)
   12c04:	fec586e3          	beq	a1,a2,12bf0 <_vfprintf_r+0x26ac>
   12c08:	00160593          	addi	a1,a2,1
   12c0c:	03900513          	li	a0,57
   12c10:	0ff5f593          	andi	a1,a1,255
   12c14:	00a60663          	beq	a2,a0,12c20 <_vfprintf_r+0x26dc>
   12c18:	feb68fa3          	sb	a1,-1(a3)
   12c1c:	ba5ff06f          	j	127c0 <_vfprintf_r+0x227c>
   12c20:	02412783          	lw	a5,36(sp)
   12c24:	00a7c583          	lbu	a1,10(a5)
   12c28:	feb68fa3          	sb	a1,-1(a3)
   12c2c:	b95ff06f          	j	127c0 <_vfprintf_r+0x227c>
   12c30:	03000793          	li	a5,48
   12c34:	0cf10423          	sb	a5,200(sp)
   12c38:	07800793          	li	a5,120
   12c3c:	fd8ff06f          	j	12414 <_vfprintf_r+0x1ed0>
   12c40:	04700793          	li	a5,71
   12c44:	01bb0933          	add	s2,s6,s11
   12c48:	04f12223          	sw	a5,68(sp)
   12c4c:	0a010c93          	addi	s9,sp,160
   12c50:	eddfd06f          	j	10b2c <_vfprintf_r+0x5e8>
   12c54:	001d8593          	addi	a1,s11,1
   12c58:	000d0513          	mv	a0,s10
   12c5c:	01112823          	sw	a7,16(sp)
   12c60:	5a4040ef          	jal	ra,17204 <_malloc_r>
   12c64:	01012883          	lw	a7,16(sp)
   12c68:	00050b13          	mv	s6,a0
   12c6c:	36050463          	beqz	a0,12fd4 <_vfprintf_r+0x2a90>
   12c70:	00a12823          	sw	a0,16(sp)
   12c74:	fbcff06f          	j	12430 <_vfprintf_r+0x1eec>
   12c78:	000d9463          	bnez	s11,12c80 <_vfprintf_r+0x273c>
   12c7c:	00100d93          	li	s11,1
   12c80:	0fc12303          	lw	t1,252(sp)
   12c84:	0f012e03          	lw	t3,240(sp)
   12c88:	0f412e83          	lw	t4,244(sp)
   12c8c:	0f812f03          	lw	t5,248(sp)
   12c90:	100a6913          	ori	s2,s4,256
   12c94:	c00346e3          	bltz	t1,128a0 <_vfprintf_r+0x235c>
   12c98:	0b010a93          	addi	s5,sp,176
   12c9c:	0dc10813          	addi	a6,sp,220
   12ca0:	0d010793          	addi	a5,sp,208
   12ca4:	0cc10713          	addi	a4,sp,204
   12ca8:	000d8693          	mv	a3,s11
   12cac:	00200613          	li	a2,2
   12cb0:	000a8593          	mv	a1,s5
   12cb4:	000d0513          	mv	a0,s10
   12cb8:	05112223          	sw	a7,68(sp)
   12cbc:	0bc12823          	sw	t3,176(sp)
   12cc0:	05c12023          	sw	t3,64(sp)
   12cc4:	0bd12a23          	sw	t4,180(sp)
   12cc8:	03d12223          	sw	t4,36(sp)
   12ccc:	0be12c23          	sw	t5,184(sp)
   12cd0:	03e12023          	sw	t5,32(sp)
   12cd4:	0a612e23          	sw	t1,188(sp)
   12cd8:	00612e23          	sw	t1,28(sp)
   12cdc:	024030ef          	jal	ra,15d00 <_ldtoa_r>
   12ce0:	01c12303          	lw	t1,28(sp)
   12ce4:	03412423          	sw	s4,40(sp)
   12ce8:	02012f03          	lw	t5,32(sp)
   12cec:	02412e83          	lw	t4,36(sp)
   12cf0:	04012e03          	lw	t3,64(sp)
   12cf4:	04412883          	lw	a7,68(sp)
   12cf8:	00050b13          	mv	s6,a0
   12cfc:	00090a13          	mv	s4,s2
   12d00:	04012c23          	sw	zero,88(sp)
   12d04:	00012823          	sw	zero,16(sp)
   12d08:	c45ff06f          	j	1294c <_vfprintf_r+0x2408>
   12d0c:	00600d93          	li	s11,6
   12d10:	d6dfd06f          	j	10a7c <_vfprintf_r+0x538>
   12d14:	0b010a93          	addi	s5,sp,176
   12d18:	000a8513          	mv	a0,s5
   12d1c:	05112a23          	sw	a7,84(sp)
   12d20:	0bc12823          	sw	t3,176(sp)
   12d24:	0bd12a23          	sw	t4,180(sp)
   12d28:	0be12c23          	sw	t5,184(sp)
   12d2c:	0a612e23          	sw	t1,188(sp)
   12d30:	648110ef          	jal	ra,24378 <__trunctfdf2>
   12d34:	0cc10613          	addi	a2,sp,204
   12d38:	608060ef          	jal	ra,19340 <frexp>
   12d3c:	00058613          	mv	a2,a1
   12d40:	00050593          	mv	a1,a0
   12d44:	000a8513          	mv	a0,s5
   12d48:	440110ef          	jal	ra,24188 <__extenddftf2>
   12d4c:	0b012783          	lw	a5,176(sp)
   12d50:	0a010c93          	addi	s9,sp,160
   12d54:	09010913          	addi	s2,sp,144
   12d58:	08f12823          	sw	a5,144(sp)
   12d5c:	0b412783          	lw	a5,180(sp)
   12d60:	08010613          	addi	a2,sp,128
   12d64:	00090593          	mv	a1,s2
   12d68:	08f12a23          	sw	a5,148(sp)
   12d6c:	0b812783          	lw	a5,184(sp)
   12d70:	000c8513          	mv	a0,s9
   12d74:	04c12023          	sw	a2,64(sp)
   12d78:	08f12c23          	sw	a5,152(sp)
   12d7c:	0bc12783          	lw	a5,188(sp)
   12d80:	08012023          	sw	zero,128(sp)
   12d84:	08012223          	sw	zero,132(sp)
   12d88:	08f12e23          	sw	a5,156(sp)
   12d8c:	3ffc07b7          	lui	a5,0x3ffc0
   12d90:	08f12623          	sw	a5,140(sp)
   12d94:	08012423          	sw	zero,136(sp)
   12d98:	0510e0ef          	jal	ra,215e8 <__multf3>
   12d9c:	0a012803          	lw	a6,160(sp)
   12da0:	0a412e03          	lw	t3,164(sp)
   12da4:	0a812e83          	lw	t4,168(sp)
   12da8:	0ac12f03          	lw	t5,172(sp)
   12dac:	000c8593          	mv	a1,s9
   12db0:	000a8513          	mv	a0,s5
   12db4:	0b012823          	sw	a6,176(sp)
   12db8:	05012823          	sw	a6,80(sp)
   12dbc:	0bc12a23          	sw	t3,180(sp)
   12dc0:	03c12223          	sw	t3,36(sp)
   12dc4:	0bd12c23          	sw	t4,184(sp)
   12dc8:	03d12023          	sw	t4,32(sp)
   12dcc:	0be12e23          	sw	t5,188(sp)
   12dd0:	01e12e23          	sw	t5,28(sp)
   12dd4:	0a012023          	sw	zero,160(sp)
   12dd8:	0a012223          	sw	zero,164(sp)
   12ddc:	0a012423          	sw	zero,168(sp)
   12de0:	0a012623          	sw	zero,172(sp)
   12de4:	4b00e0ef          	jal	ra,21294 <__eqtf2>
   12de8:	01c12f03          	lw	t5,28(sp)
   12dec:	02012e83          	lw	t4,32(sp)
   12df0:	02412e03          	lw	t3,36(sp)
   12df4:	05012803          	lw	a6,80(sp)
   12df8:	05412883          	lw	a7,84(sp)
   12dfc:	00051663          	bnez	a0,12e08 <_vfprintf_r+0x28c4>
   12e00:	00100793          	li	a5,1
   12e04:	0cf12623          	sw	a5,204(sp)
   12e08:	000257b7          	lui	a5,0x25
   12e0c:	81478793          	addi	a5,a5,-2028 # 24814 <__clzsi2+0x78>
   12e10:	02f12223          	sw	a5,36(sp)
   12e14:	f54ff06f          	j	12568 <_vfprintf_r+0x2024>
   12e18:	06700493          	li	s1,103
   12e1c:	03c12603          	lw	a2,60(sp)
   12e20:	0ff00693          	li	a3,255
   12e24:	00064783          	lbu	a5,0(a2)
   12e28:	1ad78e63          	beq	a5,a3,12fe4 <_vfprintf_r+0x2aa0>
   12e2c:	01c12703          	lw	a4,28(sp)
   12e30:	00000513          	li	a0,0
   12e34:	00000593          	li	a1,0
   12e38:	00e7de63          	bge	a5,a4,12e54 <_vfprintf_r+0x2910>
   12e3c:	40f70733          	sub	a4,a4,a5
   12e40:	00164783          	lbu	a5,1(a2)
   12e44:	04078863          	beqz	a5,12e94 <_vfprintf_r+0x2950>
   12e48:	00158593          	addi	a1,a1,1
   12e4c:	00160613          	addi	a2,a2,1
   12e50:	fed794e3          	bne	a5,a3,12e38 <_vfprintf_r+0x28f4>
   12e54:	02c12e23          	sw	a2,60(sp)
   12e58:	00e12e23          	sw	a4,28(sp)
   12e5c:	02b12223          	sw	a1,36(sp)
   12e60:	02a12423          	sw	a0,40(sp)
   12e64:	02412783          	lw	a5,36(sp)
   12e68:	02812703          	lw	a4,40(sp)
   12e6c:	04812583          	lw	a1,72(sp)
   12e70:	05112023          	sw	a7,64(sp)
   12e74:	00e78533          	add	a0,a5,a4
   12e78:	04d110ef          	jal	ra,246c4 <__mulsi3>
   12e7c:	01950cb3          	add	s9,a0,s9
   12e80:	fffcca93          	not	s5,s9
   12e84:	41fada93          	srai	s5,s5,0x1f
   12e88:	04012883          	lw	a7,64(sp)
   12e8c:	015cfab3          	and	s5,s9,s5
   12e90:	e65fd06f          	j	10cf4 <_vfprintf_r+0x7b0>
   12e94:	00064783          	lbu	a5,0(a2)
   12e98:	00150513          	addi	a0,a0,1
   12e9c:	fb5ff06f          	j	12e50 <_vfprintf_r+0x290c>
   12ea0:	00012823          	sw	zero,16(sp)
   12ea4:	00078a13          	mv	s4,a5
   12ea8:	a05ff06f          	j	128ac <_vfprintf_r+0x2368>
   12eac:	02c12783          	lw	a5,44(sp)
   12eb0:	06600493          	li	s1,102
   12eb4:	00f70cb3          	add	s9,a4,a5
   12eb8:	01bc8cb3          	add	s9,s9,s11
   12ebc:	bb5ff06f          	j	12a70 <_vfprintf_r+0x252c>
   12ec0:	0d610793          	addi	a5,sp,214
   12ec4:	00069863          	bnez	a3,12ed4 <_vfprintf_r+0x2990>
   12ec8:	03000793          	li	a5,48
   12ecc:	0cf10b23          	sb	a5,214(sp)
   12ed0:	0d710793          	addi	a5,sp,215
   12ed4:	1b010713          	addi	a4,sp,432
   12ed8:	030a8a93          	addi	s5,s5,48
   12edc:	40e786b3          	sub	a3,a5,a4
   12ee0:	01578023          	sb	s5,0(a5)
   12ee4:	0dd68793          	addi	a5,a3,221
   12ee8:	02f12c23          	sw	a5,56(sp)
   12eec:	dc5fd06f          	j	10cb0 <_vfprintf_r+0x76c>
   12ef0:	0a010c93          	addi	s9,sp,160
   12ef4:	000c8593          	mv	a1,s9
   12ef8:	000a8513          	mv	a0,s5
   12efc:	05112823          	sw	a7,80(sp)
   12f00:	0bc12823          	sw	t3,176(sp)
   12f04:	05c12023          	sw	t3,64(sp)
   12f08:	0bd12a23          	sw	t4,180(sp)
   12f0c:	03d12223          	sw	t4,36(sp)
   12f10:	0be12c23          	sw	t5,184(sp)
   12f14:	03e12023          	sw	t5,32(sp)
   12f18:	0a612e23          	sw	t1,188(sp)
   12f1c:	00612e23          	sw	t1,28(sp)
   12f20:	0a012023          	sw	zero,160(sp)
   12f24:	0a012223          	sw	zero,164(sp)
   12f28:	0a012423          	sw	zero,168(sp)
   12f2c:	0a012623          	sw	zero,172(sp)
   12f30:	3640e0ef          	jal	ra,21294 <__eqtf2>
   12f34:	01c12303          	lw	t1,28(sp)
   12f38:	02012f03          	lw	t5,32(sp)
   12f3c:	02412e83          	lw	t4,36(sp)
   12f40:	04012e03          	lw	t3,64(sp)
   12f44:	05012883          	lw	a7,80(sp)
   12f48:	a8050ee3          	beqz	a0,129e4 <_vfprintf_r+0x24a0>
   12f4c:	00100793          	li	a5,1
   12f50:	41b787b3          	sub	a5,a5,s11
   12f54:	0cf12623          	sw	a5,204(sp)
   12f58:	00f90933          	add	s2,s2,a5
   12f5c:	bd1fd06f          	j	10b2c <_vfprintf_r+0x5e8>
   12f60:	02812783          	lw	a5,40(sp)
   12f64:	0017f793          	andi	a5,a5,1
   12f68:	00079463          	bnez	a5,12f70 <_vfprintf_r+0x2a2c>
   12f6c:	d65fd06f          	j	10cd0 <_vfprintf_r+0x78c>
   12f70:	d59fd06f          	j	10cc8 <_vfprintf_r+0x784>
   12f74:	00079a63          	bnez	a5,12f88 <_vfprintf_r+0x2a44>
   12f78:	00100a93          	li	s5,1
   12f7c:	06600493          	li	s1,102
   12f80:	00100c93          	li	s9,1
   12f84:	8e5ff06f          	j	12868 <_vfprintf_r+0x2324>
   12f88:	02c12783          	lw	a5,44(sp)
   12f8c:	06600493          	li	s1,102
   12f90:	00178c93          	addi	s9,a5,1
   12f94:	01bc8cb3          	add	s9,s9,s11
   12f98:	fffcca93          	not	s5,s9
   12f9c:	41fada93          	srai	s5,s5,0x1f
   12fa0:	015cfab3          	and	s5,s9,s5
   12fa4:	8c5ff06f          	j	12868 <_vfprintf_r+0x2324>
   12fa8:	00088713          	mv	a4,a7
   12fac:	bd5fe06f          	j	11b80 <_vfprintf_r+0x163c>
   12fb0:	01412783          	lw	a5,20(sp)
   12fb4:	0007ad83          	lw	s11,0(a5)
   12fb8:	00478793          	addi	a5,a5,4
   12fbc:	000dd463          	bgez	s11,12fc4 <_vfprintf_r+0x2a80>
   12fc0:	fff00d93          	li	s11,-1
   12fc4:	00144483          	lbu	s1,1(s0)
   12fc8:	00f12a23          	sw	a5,20(sp)
   12fcc:	00070413          	mv	s0,a4
   12fd0:	f2cfd06f          	j	106fc <_vfprintf_r+0x1b8>
   12fd4:	00cc5783          	lhu	a5,12(s8)
   12fd8:	0407e793          	ori	a5,a5,64
   12fdc:	00fc1623          	sh	a5,12(s8)
   12fe0:	8c9fd06f          	j	108a8 <_vfprintf_r+0x364>
   12fe4:	02012423          	sw	zero,40(sp)
   12fe8:	02012223          	sw	zero,36(sp)
   12fec:	e79ff06f          	j	12e64 <_vfprintf_r+0x2920>
   12ff0:	00200793          	li	a5,2
   12ff4:	02f12c23          	sw	a5,56(sp)
   12ff8:	cb9fd06f          	j	10cb0 <_vfprintf_r+0x76c>

00012ffc <vfprintf>:
   12ffc:	00050793          	mv	a5,a0
   13000:	1c01a503          	lw	a0,448(gp) # 26f68 <_impure_ptr>
   13004:	00060693          	mv	a3,a2
   13008:	00058613          	mv	a2,a1
   1300c:	00078593          	mv	a1,a5
   13010:	d34fd06f          	j	10544 <_vfprintf_r>

00013014 <__sbprintf>:
   13014:	00c5d783          	lhu	a5,12(a1)
   13018:	0645ae03          	lw	t3,100(a1)
   1301c:	00e5d303          	lhu	t1,14(a1)
   13020:	01c5a883          	lw	a7,28(a1)
   13024:	0245a803          	lw	a6,36(a1)
   13028:	b8010113          	addi	sp,sp,-1152
   1302c:	ffd7f793          	andi	a5,a5,-3
   13030:	40000713          	li	a4,1024
   13034:	46812c23          	sw	s0,1144(sp)
   13038:	00f11a23          	sh	a5,20(sp)
   1303c:	00058413          	mv	s0,a1
   13040:	07010793          	addi	a5,sp,112
   13044:	00810593          	addi	a1,sp,8
   13048:	46912a23          	sw	s1,1140(sp)
   1304c:	47212823          	sw	s2,1136(sp)
   13050:	46112e23          	sw	ra,1148(sp)
   13054:	00050913          	mv	s2,a0
   13058:	07c12623          	sw	t3,108(sp)
   1305c:	00611b23          	sh	t1,22(sp)
   13060:	03112223          	sw	a7,36(sp)
   13064:	03012623          	sw	a6,44(sp)
   13068:	00f12423          	sw	a5,8(sp)
   1306c:	00f12c23          	sw	a5,24(sp)
   13070:	00e12823          	sw	a4,16(sp)
   13074:	00e12e23          	sw	a4,28(sp)
   13078:	02012023          	sw	zero,32(sp)
   1307c:	cc8fd0ef          	jal	ra,10544 <_vfprintf_r>
   13080:	00050493          	mv	s1,a0
   13084:	02055c63          	bgez	a0,130bc <__sbprintf+0xa8>
   13088:	01415783          	lhu	a5,20(sp)
   1308c:	0407f793          	andi	a5,a5,64
   13090:	00078863          	beqz	a5,130a0 <__sbprintf+0x8c>
   13094:	00c45783          	lhu	a5,12(s0)
   13098:	0407e793          	ori	a5,a5,64
   1309c:	00f41623          	sh	a5,12(s0)
   130a0:	47c12083          	lw	ra,1148(sp)
   130a4:	47812403          	lw	s0,1144(sp)
   130a8:	47012903          	lw	s2,1136(sp)
   130ac:	00048513          	mv	a0,s1
   130b0:	47412483          	lw	s1,1140(sp)
   130b4:	48010113          	addi	sp,sp,1152
   130b8:	00008067          	ret
   130bc:	00810593          	addi	a1,sp,8
   130c0:	00090513          	mv	a0,s2
   130c4:	4fc000ef          	jal	ra,135c0 <_fflush_r>
   130c8:	fc0500e3          	beqz	a0,13088 <__sbprintf+0x74>
   130cc:	fff00493          	li	s1,-1
   130d0:	fb9ff06f          	j	13088 <__sbprintf+0x74>

000130d4 <__swsetup_r>:
   130d4:	1c01a783          	lw	a5,448(gp) # 26f68 <_impure_ptr>
   130d8:	ff010113          	addi	sp,sp,-16
   130dc:	00812423          	sw	s0,8(sp)
   130e0:	00912223          	sw	s1,4(sp)
   130e4:	00112623          	sw	ra,12(sp)
   130e8:	00050493          	mv	s1,a0
   130ec:	00058413          	mv	s0,a1
   130f0:	00078663          	beqz	a5,130fc <__swsetup_r+0x28>
   130f4:	0387a703          	lw	a4,56(a5)
   130f8:	0e070063          	beqz	a4,131d8 <__swsetup_r+0x104>
   130fc:	00c41703          	lh	a4,12(s0)
   13100:	01071793          	slli	a5,a4,0x10
   13104:	00877693          	andi	a3,a4,8
   13108:	0107d793          	srli	a5,a5,0x10
   1310c:	04068063          	beqz	a3,1314c <__swsetup_r+0x78>
   13110:	01042683          	lw	a3,16(s0)
   13114:	06068063          	beqz	a3,13174 <__swsetup_r+0xa0>
   13118:	0017f613          	andi	a2,a5,1
   1311c:	08060463          	beqz	a2,131a4 <__swsetup_r+0xd0>
   13120:	01442603          	lw	a2,20(s0)
   13124:	00042423          	sw	zero,8(s0)
   13128:	00000513          	li	a0,0
   1312c:	40c00633          	neg	a2,a2
   13130:	00c42c23          	sw	a2,24(s0)
   13134:	08068663          	beqz	a3,131c0 <__swsetup_r+0xec>
   13138:	00c12083          	lw	ra,12(sp)
   1313c:	00812403          	lw	s0,8(sp)
   13140:	00412483          	lw	s1,4(sp)
   13144:	01010113          	addi	sp,sp,16
   13148:	00008067          	ret
   1314c:	0107f693          	andi	a3,a5,16
   13150:	0c068463          	beqz	a3,13218 <__swsetup_r+0x144>
   13154:	0047f793          	andi	a5,a5,4
   13158:	08079663          	bnez	a5,131e4 <__swsetup_r+0x110>
   1315c:	01042683          	lw	a3,16(s0)
   13160:	00876713          	ori	a4,a4,8
   13164:	01071793          	slli	a5,a4,0x10
   13168:	00e41623          	sh	a4,12(s0)
   1316c:	0107d793          	srli	a5,a5,0x10
   13170:	fa0694e3          	bnez	a3,13118 <__swsetup_r+0x44>
   13174:	2807f613          	andi	a2,a5,640
   13178:	20000593          	li	a1,512
   1317c:	f8b60ee3          	beq	a2,a1,13118 <__swsetup_r+0x44>
   13180:	00040593          	mv	a1,s0
   13184:	00048513          	mv	a0,s1
   13188:	75d030ef          	jal	ra,170e4 <__smakebuf_r>
   1318c:	00c41703          	lh	a4,12(s0)
   13190:	01042683          	lw	a3,16(s0)
   13194:	01071793          	slli	a5,a4,0x10
   13198:	0107d793          	srli	a5,a5,0x10
   1319c:	0017f613          	andi	a2,a5,1
   131a0:	f80610e3          	bnez	a2,13120 <__swsetup_r+0x4c>
   131a4:	0027f613          	andi	a2,a5,2
   131a8:	00000593          	li	a1,0
   131ac:	00061463          	bnez	a2,131b4 <__swsetup_r+0xe0>
   131b0:	01442583          	lw	a1,20(s0)
   131b4:	00b42423          	sw	a1,8(s0)
   131b8:	00000513          	li	a0,0
   131bc:	f6069ee3          	bnez	a3,13138 <__swsetup_r+0x64>
   131c0:	0807f793          	andi	a5,a5,128
   131c4:	f6078ae3          	beqz	a5,13138 <__swsetup_r+0x64>
   131c8:	04076713          	ori	a4,a4,64
   131cc:	00e41623          	sh	a4,12(s0)
   131d0:	fff00513          	li	a0,-1
   131d4:	f65ff06f          	j	13138 <__swsetup_r+0x64>
   131d8:	00078513          	mv	a0,a5
   131dc:	78c000ef          	jal	ra,13968 <__sinit>
   131e0:	f1dff06f          	j	130fc <__swsetup_r+0x28>
   131e4:	03042583          	lw	a1,48(s0)
   131e8:	00058e63          	beqz	a1,13204 <__swsetup_r+0x130>
   131ec:	04040793          	addi	a5,s0,64
   131f0:	00f58863          	beq	a1,a5,13200 <__swsetup_r+0x12c>
   131f4:	00048513          	mv	a0,s1
   131f8:	13d000ef          	jal	ra,13b34 <_free_r>
   131fc:	00c41703          	lh	a4,12(s0)
   13200:	02042823          	sw	zero,48(s0)
   13204:	01042683          	lw	a3,16(s0)
   13208:	fdb77713          	andi	a4,a4,-37
   1320c:	00042223          	sw	zero,4(s0)
   13210:	00d42023          	sw	a3,0(s0)
   13214:	f4dff06f          	j	13160 <__swsetup_r+0x8c>
   13218:	00900793          	li	a5,9
   1321c:	00f4a023          	sw	a5,0(s1)
   13220:	04076713          	ori	a4,a4,64
   13224:	00e41623          	sh	a4,12(s0)
   13228:	fff00513          	li	a0,-1
   1322c:	f0dff06f          	j	13138 <__swsetup_r+0x64>

00013230 <__call_exitprocs>:
   13230:	fd010113          	addi	sp,sp,-48
   13234:	01412c23          	sw	s4,24(sp)
   13238:	1b81aa03          	lw	s4,440(gp) # 26f60 <_global_impure_ptr>
   1323c:	03212023          	sw	s2,32(sp)
   13240:	02112623          	sw	ra,44(sp)
   13244:	148a2903          	lw	s2,328(s4)
   13248:	02812423          	sw	s0,40(sp)
   1324c:	02912223          	sw	s1,36(sp)
   13250:	01312e23          	sw	s3,28(sp)
   13254:	01512a23          	sw	s5,20(sp)
   13258:	01612823          	sw	s6,16(sp)
   1325c:	01712623          	sw	s7,12(sp)
   13260:	01812423          	sw	s8,8(sp)
   13264:	04090063          	beqz	s2,132a4 <__call_exitprocs+0x74>
   13268:	00050b13          	mv	s6,a0
   1326c:	00058b93          	mv	s7,a1
   13270:	00100a93          	li	s5,1
   13274:	fff00993          	li	s3,-1
   13278:	00492483          	lw	s1,4(s2) # 3ffe0004 <__BSS_END__+0x3ffb9034>
   1327c:	fff48413          	addi	s0,s1,-1
   13280:	02044263          	bltz	s0,132a4 <__call_exitprocs+0x74>
   13284:	00249493          	slli	s1,s1,0x2
   13288:	009904b3          	add	s1,s2,s1
   1328c:	040b8463          	beqz	s7,132d4 <__call_exitprocs+0xa4>
   13290:	1044a783          	lw	a5,260(s1)
   13294:	05778063          	beq	a5,s7,132d4 <__call_exitprocs+0xa4>
   13298:	fff40413          	addi	s0,s0,-1
   1329c:	ffc48493          	addi	s1,s1,-4
   132a0:	ff3416e3          	bne	s0,s3,1328c <__call_exitprocs+0x5c>
   132a4:	02c12083          	lw	ra,44(sp)
   132a8:	02812403          	lw	s0,40(sp)
   132ac:	02412483          	lw	s1,36(sp)
   132b0:	02012903          	lw	s2,32(sp)
   132b4:	01c12983          	lw	s3,28(sp)
   132b8:	01812a03          	lw	s4,24(sp)
   132bc:	01412a83          	lw	s5,20(sp)
   132c0:	01012b03          	lw	s6,16(sp)
   132c4:	00c12b83          	lw	s7,12(sp)
   132c8:	00812c03          	lw	s8,8(sp)
   132cc:	03010113          	addi	sp,sp,48
   132d0:	00008067          	ret
   132d4:	00492783          	lw	a5,4(s2)
   132d8:	0044a683          	lw	a3,4(s1)
   132dc:	fff78793          	addi	a5,a5,-1
   132e0:	04878e63          	beq	a5,s0,1333c <__call_exitprocs+0x10c>
   132e4:	0004a223          	sw	zero,4(s1)
   132e8:	fa0688e3          	beqz	a3,13298 <__call_exitprocs+0x68>
   132ec:	18892783          	lw	a5,392(s2)
   132f0:	008a9733          	sll	a4,s5,s0
   132f4:	00492c03          	lw	s8,4(s2)
   132f8:	00f777b3          	and	a5,a4,a5
   132fc:	02079263          	bnez	a5,13320 <__call_exitprocs+0xf0>
   13300:	000680e7          	jalr	a3
   13304:	00492703          	lw	a4,4(s2)
   13308:	148a2783          	lw	a5,328(s4)
   1330c:	01871463          	bne	a4,s8,13314 <__call_exitprocs+0xe4>
   13310:	f8f904e3          	beq	s2,a5,13298 <__call_exitprocs+0x68>
   13314:	f80788e3          	beqz	a5,132a4 <__call_exitprocs+0x74>
   13318:	00078913          	mv	s2,a5
   1331c:	f5dff06f          	j	13278 <__call_exitprocs+0x48>
   13320:	18c92783          	lw	a5,396(s2)
   13324:	0844a583          	lw	a1,132(s1)
   13328:	00f77733          	and	a4,a4,a5
   1332c:	00071c63          	bnez	a4,13344 <__call_exitprocs+0x114>
   13330:	000b0513          	mv	a0,s6
   13334:	000680e7          	jalr	a3
   13338:	fcdff06f          	j	13304 <__call_exitprocs+0xd4>
   1333c:	00892223          	sw	s0,4(s2)
   13340:	fa9ff06f          	j	132e8 <__call_exitprocs+0xb8>
   13344:	00058513          	mv	a0,a1
   13348:	000680e7          	jalr	a3
   1334c:	fb9ff06f          	j	13304 <__call_exitprocs+0xd4>

00013350 <atexit>:
   13350:	00050593          	mv	a1,a0
   13354:	00000693          	li	a3,0
   13358:	00000613          	li	a2,0
   1335c:	00000513          	li	a0,0
   13360:	3440a06f          	j	1d6a4 <__register_exitproc>

00013364 <__sflush_r>:
   13364:	00c59783          	lh	a5,12(a1)
   13368:	fe010113          	addi	sp,sp,-32
   1336c:	00812c23          	sw	s0,24(sp)
   13370:	01312623          	sw	s3,12(sp)
   13374:	00112e23          	sw	ra,28(sp)
   13378:	00912a23          	sw	s1,20(sp)
   1337c:	01212823          	sw	s2,16(sp)
   13380:	0087f693          	andi	a3,a5,8
   13384:	00058413          	mv	s0,a1
   13388:	00050993          	mv	s3,a0
   1338c:	10069a63          	bnez	a3,134a0 <__sflush_r+0x13c>
   13390:	00001737          	lui	a4,0x1
   13394:	80070713          	addi	a4,a4,-2048 # 800 <register_fini-0xf874>
   13398:	0045a683          	lw	a3,4(a1)
   1339c:	00e7e7b3          	or	a5,a5,a4
   133a0:	00f59623          	sh	a5,12(a1)
   133a4:	18d05463          	blez	a3,1352c <__sflush_r+0x1c8>
   133a8:	02842703          	lw	a4,40(s0)
   133ac:	0c070a63          	beqz	a4,13480 <__sflush_r+0x11c>
   133b0:	0009a483          	lw	s1,0(s3)
   133b4:	01079693          	slli	a3,a5,0x10
   133b8:	0009a023          	sw	zero,0(s3)
   133bc:	01379613          	slli	a2,a5,0x13
   133c0:	01c42583          	lw	a1,28(s0)
   133c4:	0106d693          	srli	a3,a3,0x10
   133c8:	16064863          	bltz	a2,13538 <__sflush_r+0x1d4>
   133cc:	00100693          	li	a3,1
   133d0:	00000613          	li	a2,0
   133d4:	00098513          	mv	a0,s3
   133d8:	000700e7          	jalr	a4
   133dc:	fff00793          	li	a5,-1
   133e0:	18f50c63          	beq	a0,a5,13578 <__sflush_r+0x214>
   133e4:	00c45683          	lhu	a3,12(s0)
   133e8:	02842703          	lw	a4,40(s0)
   133ec:	01c42583          	lw	a1,28(s0)
   133f0:	0046f693          	andi	a3,a3,4
   133f4:	00068e63          	beqz	a3,13410 <__sflush_r+0xac>
   133f8:	00442683          	lw	a3,4(s0)
   133fc:	03042783          	lw	a5,48(s0)
   13400:	40d50533          	sub	a0,a0,a3
   13404:	00078663          	beqz	a5,13410 <__sflush_r+0xac>
   13408:	03c42783          	lw	a5,60(s0)
   1340c:	40f50533          	sub	a0,a0,a5
   13410:	00050613          	mv	a2,a0
   13414:	00000693          	li	a3,0
   13418:	00098513          	mv	a0,s3
   1341c:	000700e7          	jalr	a4
   13420:	fff00793          	li	a5,-1
   13424:	10f51e63          	bne	a0,a5,13540 <__sflush_r+0x1dc>
   13428:	0009a703          	lw	a4,0(s3)
   1342c:	00c41783          	lh	a5,12(s0)
   13430:	16070863          	beqz	a4,135a0 <__sflush_r+0x23c>
   13434:	01d00693          	li	a3,29
   13438:	00d70663          	beq	a4,a3,13444 <__sflush_r+0xe0>
   1343c:	01600693          	li	a3,22
   13440:	0cd71463          	bne	a4,a3,13508 <__sflush_r+0x1a4>
   13444:	01042683          	lw	a3,16(s0)
   13448:	fffff737          	lui	a4,0xfffff
   1344c:	7ff70713          	addi	a4,a4,2047 # fffff7ff <__BSS_END__+0xfffd882f>
   13450:	00e7f7b3          	and	a5,a5,a4
   13454:	00f41623          	sh	a5,12(s0)
   13458:	00042223          	sw	zero,4(s0)
   1345c:	00d42023          	sw	a3,0(s0)
   13460:	03042583          	lw	a1,48(s0)
   13464:	0099a023          	sw	s1,0(s3)
   13468:	00058c63          	beqz	a1,13480 <__sflush_r+0x11c>
   1346c:	04040793          	addi	a5,s0,64
   13470:	00f58663          	beq	a1,a5,1347c <__sflush_r+0x118>
   13474:	00098513          	mv	a0,s3
   13478:	6bc000ef          	jal	ra,13b34 <_free_r>
   1347c:	02042823          	sw	zero,48(s0)
   13480:	00000513          	li	a0,0
   13484:	01c12083          	lw	ra,28(sp)
   13488:	01812403          	lw	s0,24(sp)
   1348c:	01412483          	lw	s1,20(sp)
   13490:	01012903          	lw	s2,16(sp)
   13494:	00c12983          	lw	s3,12(sp)
   13498:	02010113          	addi	sp,sp,32
   1349c:	00008067          	ret
   134a0:	0105a903          	lw	s2,16(a1)
   134a4:	fc090ee3          	beqz	s2,13480 <__sflush_r+0x11c>
   134a8:	0005a483          	lw	s1,0(a1)
   134ac:	01079713          	slli	a4,a5,0x10
   134b0:	01075713          	srli	a4,a4,0x10
   134b4:	00377713          	andi	a4,a4,3
   134b8:	0125a023          	sw	s2,0(a1)
   134bc:	412484b3          	sub	s1,s1,s2
   134c0:	00000793          	li	a5,0
   134c4:	00071463          	bnez	a4,134cc <__sflush_r+0x168>
   134c8:	0145a783          	lw	a5,20(a1)
   134cc:	00f42423          	sw	a5,8(s0)
   134d0:	00904863          	bgtz	s1,134e0 <__sflush_r+0x17c>
   134d4:	fadff06f          	j	13480 <__sflush_r+0x11c>
   134d8:	00a90933          	add	s2,s2,a0
   134dc:	fa9052e3          	blez	s1,13480 <__sflush_r+0x11c>
   134e0:	02442783          	lw	a5,36(s0)
   134e4:	01c42583          	lw	a1,28(s0)
   134e8:	00048693          	mv	a3,s1
   134ec:	00090613          	mv	a2,s2
   134f0:	00098513          	mv	a0,s3
   134f4:	000780e7          	jalr	a5
   134f8:	40a484b3          	sub	s1,s1,a0
   134fc:	fca04ee3          	bgtz	a0,134d8 <__sflush_r+0x174>
   13500:	00c45783          	lhu	a5,12(s0)
   13504:	fff00513          	li	a0,-1
   13508:	0407e793          	ori	a5,a5,64
   1350c:	01c12083          	lw	ra,28(sp)
   13510:	00f41623          	sh	a5,12(s0)
   13514:	01812403          	lw	s0,24(sp)
   13518:	01412483          	lw	s1,20(sp)
   1351c:	01012903          	lw	s2,16(sp)
   13520:	00c12983          	lw	s3,12(sp)
   13524:	02010113          	addi	sp,sp,32
   13528:	00008067          	ret
   1352c:	03c5a703          	lw	a4,60(a1)
   13530:	e6e04ce3          	bgtz	a4,133a8 <__sflush_r+0x44>
   13534:	f4dff06f          	j	13480 <__sflush_r+0x11c>
   13538:	05042503          	lw	a0,80(s0)
   1353c:	eb5ff06f          	j	133f0 <__sflush_r+0x8c>
   13540:	00c45783          	lhu	a5,12(s0)
   13544:	fffff737          	lui	a4,0xfffff
   13548:	7ff70713          	addi	a4,a4,2047 # fffff7ff <__BSS_END__+0xfffd882f>
   1354c:	00e7f7b3          	and	a5,a5,a4
   13550:	01042683          	lw	a3,16(s0)
   13554:	01079793          	slli	a5,a5,0x10
   13558:	4107d793          	srai	a5,a5,0x10
   1355c:	00f41623          	sh	a5,12(s0)
   13560:	00042223          	sw	zero,4(s0)
   13564:	00d42023          	sw	a3,0(s0)
   13568:	01379713          	slli	a4,a5,0x13
   1356c:	ee075ae3          	bgez	a4,13460 <__sflush_r+0xfc>
   13570:	04a42823          	sw	a0,80(s0)
   13574:	eedff06f          	j	13460 <__sflush_r+0xfc>
   13578:	0009a783          	lw	a5,0(s3)
   1357c:	e60784e3          	beqz	a5,133e4 <__sflush_r+0x80>
   13580:	01d00713          	li	a4,29
   13584:	02e78863          	beq	a5,a4,135b4 <__sflush_r+0x250>
   13588:	01600713          	li	a4,22
   1358c:	02e78463          	beq	a5,a4,135b4 <__sflush_r+0x250>
   13590:	00c45783          	lhu	a5,12(s0)
   13594:	0407e793          	ori	a5,a5,64
   13598:	00f41623          	sh	a5,12(s0)
   1359c:	ee9ff06f          	j	13484 <__sflush_r+0x120>
   135a0:	fffff737          	lui	a4,0xfffff
   135a4:	7ff70713          	addi	a4,a4,2047 # fffff7ff <__BSS_END__+0xfffd882f>
   135a8:	01042683          	lw	a3,16(s0)
   135ac:	00e7f7b3          	and	a5,a5,a4
   135b0:	fadff06f          	j	1355c <__sflush_r+0x1f8>
   135b4:	0099a023          	sw	s1,0(s3)
   135b8:	00000513          	li	a0,0
   135bc:	ec9ff06f          	j	13484 <__sflush_r+0x120>

000135c0 <_fflush_r>:
   135c0:	fe010113          	addi	sp,sp,-32
   135c4:	00812c23          	sw	s0,24(sp)
   135c8:	00112e23          	sw	ra,28(sp)
   135cc:	00050413          	mv	s0,a0
   135d0:	00050663          	beqz	a0,135dc <_fflush_r+0x1c>
   135d4:	03852783          	lw	a5,56(a0)
   135d8:	02078063          	beqz	a5,135f8 <_fflush_r+0x38>
   135dc:	00c59783          	lh	a5,12(a1)
   135e0:	02079663          	bnez	a5,1360c <_fflush_r+0x4c>
   135e4:	01c12083          	lw	ra,28(sp)
   135e8:	01812403          	lw	s0,24(sp)
   135ec:	00000513          	li	a0,0
   135f0:	02010113          	addi	sp,sp,32
   135f4:	00008067          	ret
   135f8:	00b12623          	sw	a1,12(sp)
   135fc:	36c000ef          	jal	ra,13968 <__sinit>
   13600:	00c12583          	lw	a1,12(sp)
   13604:	00c59783          	lh	a5,12(a1)
   13608:	fc078ee3          	beqz	a5,135e4 <_fflush_r+0x24>
   1360c:	00040513          	mv	a0,s0
   13610:	01812403          	lw	s0,24(sp)
   13614:	01c12083          	lw	ra,28(sp)
   13618:	02010113          	addi	sp,sp,32
   1361c:	d49ff06f          	j	13364 <__sflush_r>

00013620 <fflush>:
   13620:	00050593          	mv	a1,a0
   13624:	00050663          	beqz	a0,13630 <fflush+0x10>
   13628:	1c01a503          	lw	a0,448(gp) # 26f68 <_impure_ptr>
   1362c:	f95ff06f          	j	135c0 <_fflush_r>
   13630:	1b81a503          	lw	a0,440(gp) # 26f60 <_global_impure_ptr>
   13634:	000135b7          	lui	a1,0x13
   13638:	5c058593          	addi	a1,a1,1472 # 135c0 <_fflush_r>
   1363c:	5510006f          	j	1438c <_fwalk_reent>

00013640 <__fp_lock>:
   13640:	00000513          	li	a0,0
   13644:	00008067          	ret

00013648 <_cleanup_r>:
   13648:	0001e5b7          	lui	a1,0x1e
   1364c:	85c58593          	addi	a1,a1,-1956 # 1d85c <_fclose_r>
   13650:	53d0006f          	j	1438c <_fwalk_reent>

00013654 <__sinit.part.0>:
   13654:	fe010113          	addi	sp,sp,-32
   13658:	000137b7          	lui	a5,0x13
   1365c:	00112e23          	sw	ra,28(sp)
   13660:	00812c23          	sw	s0,24(sp)
   13664:	00912a23          	sw	s1,20(sp)
   13668:	01212823          	sw	s2,16(sp)
   1366c:	01312623          	sw	s3,12(sp)
   13670:	01412423          	sw	s4,8(sp)
   13674:	01512223          	sw	s5,4(sp)
   13678:	01612023          	sw	s6,0(sp)
   1367c:	00452403          	lw	s0,4(a0)
   13680:	64878793          	addi	a5,a5,1608 # 13648 <_cleanup_r>
   13684:	02f52e23          	sw	a5,60(a0)
   13688:	2ec50713          	addi	a4,a0,748
   1368c:	00300793          	li	a5,3
   13690:	2ee52423          	sw	a4,744(a0)
   13694:	2ef52223          	sw	a5,740(a0)
   13698:	2e052023          	sw	zero,736(a0)
   1369c:	00400793          	li	a5,4
   136a0:	00050913          	mv	s2,a0
   136a4:	00f42623          	sw	a5,12(s0)
   136a8:	00800613          	li	a2,8
   136ac:	00000593          	li	a1,0
   136b0:	06042223          	sw	zero,100(s0)
   136b4:	00042023          	sw	zero,0(s0)
   136b8:	00042223          	sw	zero,4(s0)
   136bc:	00042423          	sw	zero,8(s0)
   136c0:	00042823          	sw	zero,16(s0)
   136c4:	00042a23          	sw	zero,20(s0)
   136c8:	00042c23          	sw	zero,24(s0)
   136cc:	05c40513          	addi	a0,s0,92
   136d0:	ba5fc0ef          	jal	ra,10274 <memset>
   136d4:	00019b37          	lui	s6,0x19
   136d8:	00892483          	lw	s1,8(s2)
   136dc:	00019ab7          	lui	s5,0x19
   136e0:	00019a37          	lui	s4,0x19
   136e4:	000199b7          	lui	s3,0x19
   136e8:	528b0b13          	addi	s6,s6,1320 # 19528 <__sread>
   136ec:	58ca8a93          	addi	s5,s5,1420 # 1958c <__swrite>
   136f0:	614a0a13          	addi	s4,s4,1556 # 19614 <__sseek>
   136f4:	67c98993          	addi	s3,s3,1660 # 1967c <__sclose>
   136f8:	000107b7          	lui	a5,0x10
   136fc:	03642023          	sw	s6,32(s0)
   13700:	03542223          	sw	s5,36(s0)
   13704:	03442423          	sw	s4,40(s0)
   13708:	03342623          	sw	s3,44(s0)
   1370c:	00842e23          	sw	s0,28(s0)
   13710:	00978793          	addi	a5,a5,9 # 10009 <register_fini-0x6b>
   13714:	00f4a623          	sw	a5,12(s1)
   13718:	00800613          	li	a2,8
   1371c:	00000593          	li	a1,0
   13720:	0604a223          	sw	zero,100(s1)
   13724:	0004a023          	sw	zero,0(s1)
   13728:	0004a223          	sw	zero,4(s1)
   1372c:	0004a423          	sw	zero,8(s1)
   13730:	0004a823          	sw	zero,16(s1)
   13734:	0004aa23          	sw	zero,20(s1)
   13738:	0004ac23          	sw	zero,24(s1)
   1373c:	05c48513          	addi	a0,s1,92
   13740:	b35fc0ef          	jal	ra,10274 <memset>
   13744:	00c92403          	lw	s0,12(s2)
   13748:	000207b7          	lui	a5,0x20
   1374c:	0364a023          	sw	s6,32(s1)
   13750:	0354a223          	sw	s5,36(s1)
   13754:	0344a423          	sw	s4,40(s1)
   13758:	0334a623          	sw	s3,44(s1)
   1375c:	0094ae23          	sw	s1,28(s1)
   13760:	01278793          	addi	a5,a5,18 # 20012 <__umoddi3+0xc6>
   13764:	00f42623          	sw	a5,12(s0)
   13768:	06042223          	sw	zero,100(s0)
   1376c:	00042023          	sw	zero,0(s0)
   13770:	00042223          	sw	zero,4(s0)
   13774:	00042423          	sw	zero,8(s0)
   13778:	00042823          	sw	zero,16(s0)
   1377c:	00042a23          	sw	zero,20(s0)
   13780:	00042c23          	sw	zero,24(s0)
   13784:	05c40513          	addi	a0,s0,92
   13788:	00800613          	li	a2,8
   1378c:	00000593          	li	a1,0
   13790:	ae5fc0ef          	jal	ra,10274 <memset>
   13794:	01c12083          	lw	ra,28(sp)
   13798:	03642023          	sw	s6,32(s0)
   1379c:	03542223          	sw	s5,36(s0)
   137a0:	03442423          	sw	s4,40(s0)
   137a4:	03342623          	sw	s3,44(s0)
   137a8:	00842e23          	sw	s0,28(s0)
   137ac:	01812403          	lw	s0,24(sp)
   137b0:	00100793          	li	a5,1
   137b4:	02f92c23          	sw	a5,56(s2)
   137b8:	01412483          	lw	s1,20(sp)
   137bc:	01012903          	lw	s2,16(sp)
   137c0:	00c12983          	lw	s3,12(sp)
   137c4:	00812a03          	lw	s4,8(sp)
   137c8:	00412a83          	lw	s5,4(sp)
   137cc:	00012b03          	lw	s6,0(sp)
   137d0:	02010113          	addi	sp,sp,32
   137d4:	00008067          	ret

000137d8 <__fp_unlock>:
   137d8:	00000513          	li	a0,0
   137dc:	00008067          	ret

000137e0 <__sfmoreglue>:
   137e0:	ff010113          	addi	sp,sp,-16
   137e4:	fff58613          	addi	a2,a1,-1
   137e8:	00812423          	sw	s0,8(sp)
   137ec:	00161413          	slli	s0,a2,0x1
   137f0:	00c40433          	add	s0,s0,a2
   137f4:	00241413          	slli	s0,s0,0x2
   137f8:	00c40433          	add	s0,s0,a2
   137fc:	00341413          	slli	s0,s0,0x3
   13800:	01212023          	sw	s2,0(sp)
   13804:	00058913          	mv	s2,a1
   13808:	07440593          	addi	a1,s0,116
   1380c:	00912223          	sw	s1,4(sp)
   13810:	00112623          	sw	ra,12(sp)
   13814:	1f1030ef          	jal	ra,17204 <_malloc_r>
   13818:	00050493          	mv	s1,a0
   1381c:	02050063          	beqz	a0,1383c <__sfmoreglue+0x5c>
   13820:	00c50513          	addi	a0,a0,12
   13824:	0004a023          	sw	zero,0(s1)
   13828:	0124a223          	sw	s2,4(s1)
   1382c:	00a4a423          	sw	a0,8(s1)
   13830:	06840613          	addi	a2,s0,104
   13834:	00000593          	li	a1,0
   13838:	a3dfc0ef          	jal	ra,10274 <memset>
   1383c:	00c12083          	lw	ra,12(sp)
   13840:	00812403          	lw	s0,8(sp)
   13844:	00012903          	lw	s2,0(sp)
   13848:	00048513          	mv	a0,s1
   1384c:	00412483          	lw	s1,4(sp)
   13850:	01010113          	addi	sp,sp,16
   13854:	00008067          	ret

00013858 <__sfp>:
   13858:	fe010113          	addi	sp,sp,-32
   1385c:	01212823          	sw	s2,16(sp)
   13860:	1b81a903          	lw	s2,440(gp) # 26f60 <_global_impure_ptr>
   13864:	01312623          	sw	s3,12(sp)
   13868:	00112e23          	sw	ra,28(sp)
   1386c:	03892783          	lw	a5,56(s2)
   13870:	00812c23          	sw	s0,24(sp)
   13874:	00912a23          	sw	s1,20(sp)
   13878:	00050993          	mv	s3,a0
   1387c:	0a078663          	beqz	a5,13928 <__sfp+0xd0>
   13880:	2e090913          	addi	s2,s2,736
   13884:	fff00493          	li	s1,-1
   13888:	00492783          	lw	a5,4(s2)
   1388c:	00892403          	lw	s0,8(s2)
   13890:	fff78793          	addi	a5,a5,-1
   13894:	0007d863          	bgez	a5,138a4 <__sfp+0x4c>
   13898:	0800006f          	j	13918 <__sfp+0xc0>
   1389c:	06840413          	addi	s0,s0,104
   138a0:	06978c63          	beq	a5,s1,13918 <__sfp+0xc0>
   138a4:	00c41703          	lh	a4,12(s0)
   138a8:	fff78793          	addi	a5,a5,-1
   138ac:	fe0718e3          	bnez	a4,1389c <__sfp+0x44>
   138b0:	ffff07b7          	lui	a5,0xffff0
   138b4:	00178793          	addi	a5,a5,1 # ffff0001 <__BSS_END__+0xfffc9031>
   138b8:	06042223          	sw	zero,100(s0)
   138bc:	00042023          	sw	zero,0(s0)
   138c0:	00042223          	sw	zero,4(s0)
   138c4:	00042423          	sw	zero,8(s0)
   138c8:	00f42623          	sw	a5,12(s0)
   138cc:	00042823          	sw	zero,16(s0)
   138d0:	00042a23          	sw	zero,20(s0)
   138d4:	00042c23          	sw	zero,24(s0)
   138d8:	00800613          	li	a2,8
   138dc:	00000593          	li	a1,0
   138e0:	05c40513          	addi	a0,s0,92
   138e4:	991fc0ef          	jal	ra,10274 <memset>
   138e8:	02042823          	sw	zero,48(s0)
   138ec:	02042a23          	sw	zero,52(s0)
   138f0:	04042223          	sw	zero,68(s0)
   138f4:	04042423          	sw	zero,72(s0)
   138f8:	01c12083          	lw	ra,28(sp)
   138fc:	00040513          	mv	a0,s0
   13900:	01812403          	lw	s0,24(sp)
   13904:	01412483          	lw	s1,20(sp)
   13908:	01012903          	lw	s2,16(sp)
   1390c:	00c12983          	lw	s3,12(sp)
   13910:	02010113          	addi	sp,sp,32
   13914:	00008067          	ret
   13918:	00092403          	lw	s0,0(s2)
   1391c:	00040c63          	beqz	s0,13934 <__sfp+0xdc>
   13920:	00040913          	mv	s2,s0
   13924:	f65ff06f          	j	13888 <__sfp+0x30>
   13928:	00090513          	mv	a0,s2
   1392c:	d29ff0ef          	jal	ra,13654 <__sinit.part.0>
   13930:	f51ff06f          	j	13880 <__sfp+0x28>
   13934:	00400593          	li	a1,4
   13938:	00098513          	mv	a0,s3
   1393c:	ea5ff0ef          	jal	ra,137e0 <__sfmoreglue>
   13940:	00a92023          	sw	a0,0(s2)
   13944:	00050413          	mv	s0,a0
   13948:	fc051ce3          	bnez	a0,13920 <__sfp+0xc8>
   1394c:	00c00793          	li	a5,12
   13950:	00f9a023          	sw	a5,0(s3)
   13954:	fa5ff06f          	j	138f8 <__sfp+0xa0>

00013958 <_cleanup>:
   13958:	1b81a503          	lw	a0,440(gp) # 26f60 <_global_impure_ptr>
   1395c:	0001e5b7          	lui	a1,0x1e
   13960:	85c58593          	addi	a1,a1,-1956 # 1d85c <_fclose_r>
   13964:	2290006f          	j	1438c <_fwalk_reent>

00013968 <__sinit>:
   13968:	03852783          	lw	a5,56(a0)
   1396c:	00078463          	beqz	a5,13974 <__sinit+0xc>
   13970:	00008067          	ret
   13974:	ce1ff06f          	j	13654 <__sinit.part.0>

00013978 <__sfp_lock_acquire>:
   13978:	00008067          	ret

0001397c <__sfp_lock_release>:
   1397c:	00008067          	ret

00013980 <__sinit_lock_acquire>:
   13980:	00008067          	ret

00013984 <__sinit_lock_release>:
   13984:	00008067          	ret

00013988 <__fp_lock_all>:
   13988:	1c01a503          	lw	a0,448(gp) # 26f68 <_impure_ptr>
   1398c:	000135b7          	lui	a1,0x13
   13990:	64058593          	addi	a1,a1,1600 # 13640 <__fp_lock>
   13994:	1550006f          	j	142e8 <_fwalk>

00013998 <__fp_unlock_all>:
   13998:	1c01a503          	lw	a0,448(gp) # 26f68 <_impure_ptr>
   1399c:	000135b7          	lui	a1,0x13
   139a0:	7d858593          	addi	a1,a1,2008 # 137d8 <__fp_unlock>
   139a4:	1450006f          	j	142e8 <_fwalk>

000139a8 <__libc_fini_array>:
   139a8:	ff010113          	addi	sp,sp,-16
   139ac:	00812423          	sw	s0,8(sp)
   139b0:	000267b7          	lui	a5,0x26
   139b4:	00026437          	lui	s0,0x26
   139b8:	5a040413          	addi	s0,s0,1440 # 265a0 <__init_array_end>
   139bc:	5a478793          	addi	a5,a5,1444 # 265a4 <__fini_array_end>
   139c0:	408787b3          	sub	a5,a5,s0
   139c4:	00912223          	sw	s1,4(sp)
   139c8:	00112623          	sw	ra,12(sp)
   139cc:	4027d493          	srai	s1,a5,0x2
   139d0:	02048063          	beqz	s1,139f0 <__libc_fini_array+0x48>
   139d4:	ffc78793          	addi	a5,a5,-4
   139d8:	00878433          	add	s0,a5,s0
   139dc:	00042783          	lw	a5,0(s0)
   139e0:	fff48493          	addi	s1,s1,-1
   139e4:	ffc40413          	addi	s0,s0,-4
   139e8:	000780e7          	jalr	a5
   139ec:	fe0498e3          	bnez	s1,139dc <__libc_fini_array+0x34>
   139f0:	00c12083          	lw	ra,12(sp)
   139f4:	00812403          	lw	s0,8(sp)
   139f8:	00412483          	lw	s1,4(sp)
   139fc:	01010113          	addi	sp,sp,16
   13a00:	00008067          	ret

00013a04 <_malloc_trim_r>:
   13a04:	fe010113          	addi	sp,sp,-32
   13a08:	01312623          	sw	s3,12(sp)
   13a0c:	00812c23          	sw	s0,24(sp)
   13a10:	00912a23          	sw	s1,20(sp)
   13a14:	01212823          	sw	s2,16(sp)
   13a18:	01412423          	sw	s4,8(sp)
   13a1c:	00112e23          	sw	ra,28(sp)
   13a20:	00058a13          	mv	s4,a1
   13a24:	00050913          	mv	s2,a0
   13a28:	c2818993          	addi	s3,gp,-984 # 269d0 <__malloc_av_>
   13a2c:	280040ef          	jal	ra,17cac <__malloc_lock>
   13a30:	0089a703          	lw	a4,8(s3)
   13a34:	000017b7          	lui	a5,0x1
   13a38:	fef78413          	addi	s0,a5,-17 # fef <register_fini-0xf085>
   13a3c:	00472483          	lw	s1,4(a4)
   13a40:	41440433          	sub	s0,s0,s4
   13a44:	ffc4f493          	andi	s1,s1,-4
   13a48:	00940433          	add	s0,s0,s1
   13a4c:	00c45413          	srli	s0,s0,0xc
   13a50:	fff40413          	addi	s0,s0,-1
   13a54:	00c41413          	slli	s0,s0,0xc
   13a58:	00f44e63          	blt	s0,a5,13a74 <_malloc_trim_r+0x70>
   13a5c:	00000593          	li	a1,0
   13a60:	00090513          	mv	a0,s2
   13a64:	185050ef          	jal	ra,193e8 <_sbrk_r>
   13a68:	0089a783          	lw	a5,8(s3)
   13a6c:	009787b3          	add	a5,a5,s1
   13a70:	02f50863          	beq	a0,a5,13aa0 <_malloc_trim_r+0x9c>
   13a74:	00090513          	mv	a0,s2
   13a78:	238040ef          	jal	ra,17cb0 <__malloc_unlock>
   13a7c:	01c12083          	lw	ra,28(sp)
   13a80:	01812403          	lw	s0,24(sp)
   13a84:	01412483          	lw	s1,20(sp)
   13a88:	01012903          	lw	s2,16(sp)
   13a8c:	00c12983          	lw	s3,12(sp)
   13a90:	00812a03          	lw	s4,8(sp)
   13a94:	00000513          	li	a0,0
   13a98:	02010113          	addi	sp,sp,32
   13a9c:	00008067          	ret
   13aa0:	408005b3          	neg	a1,s0
   13aa4:	00090513          	mv	a0,s2
   13aa8:	141050ef          	jal	ra,193e8 <_sbrk_r>
   13aac:	fff00793          	li	a5,-1
   13ab0:	04f50863          	beq	a0,a5,13b00 <_malloc_trim_r+0xfc>
   13ab4:	1fc18793          	addi	a5,gp,508 # 26fa4 <__malloc_current_mallinfo>
   13ab8:	0007a703          	lw	a4,0(a5)
   13abc:	0089a683          	lw	a3,8(s3)
   13ac0:	408484b3          	sub	s1,s1,s0
   13ac4:	0014e493          	ori	s1,s1,1
   13ac8:	40870433          	sub	s0,a4,s0
   13acc:	00090513          	mv	a0,s2
   13ad0:	0096a223          	sw	s1,4(a3)
   13ad4:	0087a023          	sw	s0,0(a5)
   13ad8:	1d8040ef          	jal	ra,17cb0 <__malloc_unlock>
   13adc:	01c12083          	lw	ra,28(sp)
   13ae0:	01812403          	lw	s0,24(sp)
   13ae4:	01412483          	lw	s1,20(sp)
   13ae8:	01012903          	lw	s2,16(sp)
   13aec:	00c12983          	lw	s3,12(sp)
   13af0:	00812a03          	lw	s4,8(sp)
   13af4:	00100513          	li	a0,1
   13af8:	02010113          	addi	sp,sp,32
   13afc:	00008067          	ret
   13b00:	00000593          	li	a1,0
   13b04:	00090513          	mv	a0,s2
   13b08:	0e1050ef          	jal	ra,193e8 <_sbrk_r>
   13b0c:	0089a703          	lw	a4,8(s3)
   13b10:	00f00693          	li	a3,15
   13b14:	40e507b3          	sub	a5,a0,a4
   13b18:	f4f6dee3          	bge	a3,a5,13a74 <_malloc_trim_r+0x70>
   13b1c:	1c41a683          	lw	a3,452(gp) # 26f6c <__malloc_sbrk_base>
   13b20:	0017e793          	ori	a5,a5,1
   13b24:	00f72223          	sw	a5,4(a4)
   13b28:	40d50533          	sub	a0,a0,a3
   13b2c:	1ea1ae23          	sw	a0,508(gp) # 26fa4 <__malloc_current_mallinfo>
   13b30:	f45ff06f          	j	13a74 <_malloc_trim_r+0x70>

00013b34 <_free_r>:
   13b34:	12058463          	beqz	a1,13c5c <_free_r+0x128>
   13b38:	ff010113          	addi	sp,sp,-16
   13b3c:	00812423          	sw	s0,8(sp)
   13b40:	00912223          	sw	s1,4(sp)
   13b44:	00058413          	mv	s0,a1
   13b48:	00050493          	mv	s1,a0
   13b4c:	00112623          	sw	ra,12(sp)
   13b50:	15c040ef          	jal	ra,17cac <__malloc_lock>
   13b54:	ffc42803          	lw	a6,-4(s0)
   13b58:	ff840713          	addi	a4,s0,-8
   13b5c:	ffe87793          	andi	a5,a6,-2
   13b60:	00f70633          	add	a2,a4,a5
   13b64:	c2818593          	addi	a1,gp,-984 # 269d0 <__malloc_av_>
   13b68:	00462683          	lw	a3,4(a2)
   13b6c:	0085a503          	lw	a0,8(a1)
   13b70:	ffc6f693          	andi	a3,a3,-4
   13b74:	1ac50663          	beq	a0,a2,13d20 <_free_r+0x1ec>
   13b78:	00d62223          	sw	a3,4(a2)
   13b7c:	00187813          	andi	a6,a6,1
   13b80:	00d60533          	add	a0,a2,a3
   13b84:	08081e63          	bnez	a6,13c20 <_free_r+0xec>
   13b88:	ff842303          	lw	t1,-8(s0)
   13b8c:	00452803          	lw	a6,4(a0)
   13b90:	40670733          	sub	a4,a4,t1
   13b94:	00872883          	lw	a7,8(a4)
   13b98:	c3018513          	addi	a0,gp,-976 # 269d8 <__malloc_av_+0x8>
   13b9c:	006787b3          	add	a5,a5,t1
   13ba0:	00187813          	andi	a6,a6,1
   13ba4:	12a88e63          	beq	a7,a0,13ce0 <_free_r+0x1ac>
   13ba8:	00c72303          	lw	t1,12(a4)
   13bac:	0068a623          	sw	t1,12(a7)
   13bb0:	01132423          	sw	a7,8(t1)
   13bb4:	1c080e63          	beqz	a6,13d90 <_free_r+0x25c>
   13bb8:	0017e693          	ori	a3,a5,1
   13bbc:	00d72223          	sw	a3,4(a4)
   13bc0:	00f62023          	sw	a5,0(a2)
   13bc4:	1ff00693          	li	a3,511
   13bc8:	0af6e663          	bltu	a3,a5,13c74 <_free_r+0x140>
   13bcc:	ff87f693          	andi	a3,a5,-8
   13bd0:	00868693          	addi	a3,a3,8
   13bd4:	0045a503          	lw	a0,4(a1)
   13bd8:	00d586b3          	add	a3,a1,a3
   13bdc:	0006a603          	lw	a2,0(a3)
   13be0:	0057d813          	srli	a6,a5,0x5
   13be4:	00100793          	li	a5,1
   13be8:	010797b3          	sll	a5,a5,a6
   13bec:	00a7e7b3          	or	a5,a5,a0
   13bf0:	ff868513          	addi	a0,a3,-8
   13bf4:	00a72623          	sw	a0,12(a4)
   13bf8:	00c72423          	sw	a2,8(a4)
   13bfc:	00f5a223          	sw	a5,4(a1)
   13c00:	00e6a023          	sw	a4,0(a3)
   13c04:	00e62623          	sw	a4,12(a2)
   13c08:	00812403          	lw	s0,8(sp)
   13c0c:	00c12083          	lw	ra,12(sp)
   13c10:	00048513          	mv	a0,s1
   13c14:	00412483          	lw	s1,4(sp)
   13c18:	01010113          	addi	sp,sp,16
   13c1c:	0940406f          	j	17cb0 <__malloc_unlock>
   13c20:	00452503          	lw	a0,4(a0)
   13c24:	00157513          	andi	a0,a0,1
   13c28:	02051c63          	bnez	a0,13c60 <_free_r+0x12c>
   13c2c:	00d787b3          	add	a5,a5,a3
   13c30:	c3018513          	addi	a0,gp,-976 # 269d8 <__malloc_av_+0x8>
   13c34:	00862683          	lw	a3,8(a2)
   13c38:	0017e893          	ori	a7,a5,1
   13c3c:	00f70833          	add	a6,a4,a5
   13c40:	16a68463          	beq	a3,a0,13da8 <_free_r+0x274>
   13c44:	00c62603          	lw	a2,12(a2)
   13c48:	00c6a623          	sw	a2,12(a3)
   13c4c:	00d62423          	sw	a3,8(a2)
   13c50:	01172223          	sw	a7,4(a4)
   13c54:	00f82023          	sw	a5,0(a6)
   13c58:	f6dff06f          	j	13bc4 <_free_r+0x90>
   13c5c:	00008067          	ret
   13c60:	0017e693          	ori	a3,a5,1
   13c64:	fed42e23          	sw	a3,-4(s0)
   13c68:	00f62023          	sw	a5,0(a2)
   13c6c:	1ff00693          	li	a3,511
   13c70:	f4f6fee3          	bgeu	a3,a5,13bcc <_free_r+0x98>
   13c74:	0097d693          	srli	a3,a5,0x9
   13c78:	00400613          	li	a2,4
   13c7c:	0ed66863          	bltu	a2,a3,13d6c <_free_r+0x238>
   13c80:	0067d693          	srli	a3,a5,0x6
   13c84:	03968813          	addi	a6,a3,57
   13c88:	03868613          	addi	a2,a3,56
   13c8c:	00381813          	slli	a6,a6,0x3
   13c90:	01058833          	add	a6,a1,a6
   13c94:	00082683          	lw	a3,0(a6)
   13c98:	ff880813          	addi	a6,a6,-8
   13c9c:	12d80463          	beq	a6,a3,13dc4 <_free_r+0x290>
   13ca0:	0046a603          	lw	a2,4(a3)
   13ca4:	ffc67613          	andi	a2,a2,-4
   13ca8:	00c7f663          	bgeu	a5,a2,13cb4 <_free_r+0x180>
   13cac:	0086a683          	lw	a3,8(a3)
   13cb0:	fed818e3          	bne	a6,a3,13ca0 <_free_r+0x16c>
   13cb4:	00c6a803          	lw	a6,12(a3)
   13cb8:	01072623          	sw	a6,12(a4)
   13cbc:	00d72423          	sw	a3,8(a4)
   13cc0:	00812403          	lw	s0,8(sp)
   13cc4:	00c12083          	lw	ra,12(sp)
   13cc8:	00e82423          	sw	a4,8(a6)
   13ccc:	00048513          	mv	a0,s1
   13cd0:	00412483          	lw	s1,4(sp)
   13cd4:	00e6a623          	sw	a4,12(a3)
   13cd8:	01010113          	addi	sp,sp,16
   13cdc:	7d50306f          	j	17cb0 <__malloc_unlock>
   13ce0:	14081263          	bnez	a6,13e24 <_free_r+0x2f0>
   13ce4:	00c62583          	lw	a1,12(a2)
   13ce8:	00862603          	lw	a2,8(a2)
   13cec:	00f687b3          	add	a5,a3,a5
   13cf0:	00812403          	lw	s0,8(sp)
   13cf4:	00b62623          	sw	a1,12(a2)
   13cf8:	00c5a423          	sw	a2,8(a1)
   13cfc:	0017e693          	ori	a3,a5,1
   13d00:	00c12083          	lw	ra,12(sp)
   13d04:	00d72223          	sw	a3,4(a4)
   13d08:	00048513          	mv	a0,s1
   13d0c:	00f70733          	add	a4,a4,a5
   13d10:	00412483          	lw	s1,4(sp)
   13d14:	00f72023          	sw	a5,0(a4)
   13d18:	01010113          	addi	sp,sp,16
   13d1c:	7950306f          	j	17cb0 <__malloc_unlock>
   13d20:	00187813          	andi	a6,a6,1
   13d24:	00d787b3          	add	a5,a5,a3
   13d28:	02081063          	bnez	a6,13d48 <_free_r+0x214>
   13d2c:	ff842503          	lw	a0,-8(s0)
   13d30:	40a70733          	sub	a4,a4,a0
   13d34:	00c72683          	lw	a3,12(a4)
   13d38:	00872603          	lw	a2,8(a4)
   13d3c:	00a787b3          	add	a5,a5,a0
   13d40:	00d62623          	sw	a3,12(a2)
   13d44:	00c6a423          	sw	a2,8(a3)
   13d48:	0017e613          	ori	a2,a5,1
   13d4c:	1c81a683          	lw	a3,456(gp) # 26f70 <__malloc_trim_threshold>
   13d50:	00c72223          	sw	a2,4(a4)
   13d54:	00e5a423          	sw	a4,8(a1)
   13d58:	ead7e8e3          	bltu	a5,a3,13c08 <_free_r+0xd4>
   13d5c:	1d41a583          	lw	a1,468(gp) # 26f7c <__malloc_top_pad>
   13d60:	00048513          	mv	a0,s1
   13d64:	ca1ff0ef          	jal	ra,13a04 <_malloc_trim_r>
   13d68:	ea1ff06f          	j	13c08 <_free_r+0xd4>
   13d6c:	01400613          	li	a2,20
   13d70:	02d67463          	bgeu	a2,a3,13d98 <_free_r+0x264>
   13d74:	05400613          	li	a2,84
   13d78:	06d66463          	bltu	a2,a3,13de0 <_free_r+0x2ac>
   13d7c:	00c7d693          	srli	a3,a5,0xc
   13d80:	06f68813          	addi	a6,a3,111
   13d84:	06e68613          	addi	a2,a3,110
   13d88:	00381813          	slli	a6,a6,0x3
   13d8c:	f05ff06f          	j	13c90 <_free_r+0x15c>
   13d90:	00d787b3          	add	a5,a5,a3
   13d94:	ea1ff06f          	j	13c34 <_free_r+0x100>
   13d98:	05c68813          	addi	a6,a3,92
   13d9c:	05b68613          	addi	a2,a3,91
   13da0:	00381813          	slli	a6,a6,0x3
   13da4:	eedff06f          	j	13c90 <_free_r+0x15c>
   13da8:	00e5aa23          	sw	a4,20(a1)
   13dac:	00e5a823          	sw	a4,16(a1)
   13db0:	00a72623          	sw	a0,12(a4)
   13db4:	00a72423          	sw	a0,8(a4)
   13db8:	01172223          	sw	a7,4(a4)
   13dbc:	00f82023          	sw	a5,0(a6)
   13dc0:	e49ff06f          	j	13c08 <_free_r+0xd4>
   13dc4:	0045a503          	lw	a0,4(a1)
   13dc8:	40265613          	srai	a2,a2,0x2
   13dcc:	00100793          	li	a5,1
   13dd0:	00c79633          	sll	a2,a5,a2
   13dd4:	00a66633          	or	a2,a2,a0
   13dd8:	00c5a223          	sw	a2,4(a1)
   13ddc:	eddff06f          	j	13cb8 <_free_r+0x184>
   13de0:	15400613          	li	a2,340
   13de4:	00d66c63          	bltu	a2,a3,13dfc <_free_r+0x2c8>
   13de8:	00f7d693          	srli	a3,a5,0xf
   13dec:	07868813          	addi	a6,a3,120
   13df0:	07768613          	addi	a2,a3,119
   13df4:	00381813          	slli	a6,a6,0x3
   13df8:	e99ff06f          	j	13c90 <_free_r+0x15c>
   13dfc:	55400613          	li	a2,1364
   13e00:	00d66c63          	bltu	a2,a3,13e18 <_free_r+0x2e4>
   13e04:	0127d693          	srli	a3,a5,0x12
   13e08:	07d68813          	addi	a6,a3,125
   13e0c:	07c68613          	addi	a2,a3,124
   13e10:	00381813          	slli	a6,a6,0x3
   13e14:	e7dff06f          	j	13c90 <_free_r+0x15c>
   13e18:	3f800813          	li	a6,1016
   13e1c:	07e00613          	li	a2,126
   13e20:	e71ff06f          	j	13c90 <_free_r+0x15c>
   13e24:	0017e693          	ori	a3,a5,1
   13e28:	00d72223          	sw	a3,4(a4)
   13e2c:	00f62023          	sw	a5,0(a2)
   13e30:	dd9ff06f          	j	13c08 <_free_r+0xd4>

00013e34 <__sfvwrite_r>:
   13e34:	00862783          	lw	a5,8(a2)
   13e38:	32078e63          	beqz	a5,14174 <__sfvwrite_r+0x340>
   13e3c:	00c5d783          	lhu	a5,12(a1)
   13e40:	fd010113          	addi	sp,sp,-48
   13e44:	02812423          	sw	s0,40(sp)
   13e48:	01412c23          	sw	s4,24(sp)
   13e4c:	01512a23          	sw	s5,20(sp)
   13e50:	02112623          	sw	ra,44(sp)
   13e54:	02912223          	sw	s1,36(sp)
   13e58:	03212023          	sw	s2,32(sp)
   13e5c:	01312e23          	sw	s3,28(sp)
   13e60:	01612823          	sw	s6,16(sp)
   13e64:	01712623          	sw	s7,12(sp)
   13e68:	01812423          	sw	s8,8(sp)
   13e6c:	01912223          	sw	s9,4(sp)
   13e70:	01a12023          	sw	s10,0(sp)
   13e74:	0087f713          	andi	a4,a5,8
   13e78:	00060a13          	mv	s4,a2
   13e7c:	00050a93          	mv	s5,a0
   13e80:	00058413          	mv	s0,a1
   13e84:	08070663          	beqz	a4,13f10 <__sfvwrite_r+0xdc>
   13e88:	0105a703          	lw	a4,16(a1)
   13e8c:	08070263          	beqz	a4,13f10 <__sfvwrite_r+0xdc>
   13e90:	0027f713          	andi	a4,a5,2
   13e94:	000a2483          	lw	s1,0(s4)
   13e98:	08070c63          	beqz	a4,13f30 <__sfvwrite_r+0xfc>
   13e9c:	02442783          	lw	a5,36(s0)
   13ea0:	01c42583          	lw	a1,28(s0)
   13ea4:	80000b37          	lui	s6,0x80000
   13ea8:	00000993          	li	s3,0
   13eac:	00000913          	li	s2,0
   13eb0:	c00b4b13          	xori	s6,s6,-1024
   13eb4:	00098613          	mv	a2,s3
   13eb8:	000a8513          	mv	a0,s5
   13ebc:	04090263          	beqz	s2,13f00 <__sfvwrite_r+0xcc>
   13ec0:	00090693          	mv	a3,s2
   13ec4:	012b7463          	bgeu	s6,s2,13ecc <__sfvwrite_r+0x98>
   13ec8:	000b0693          	mv	a3,s6
   13ecc:	000780e7          	jalr	a5
   13ed0:	28a05863          	blez	a0,14160 <__sfvwrite_r+0x32c>
   13ed4:	008a2783          	lw	a5,8(s4)
   13ed8:	00a989b3          	add	s3,s3,a0
   13edc:	40a90933          	sub	s2,s2,a0
   13ee0:	40a78533          	sub	a0,a5,a0
   13ee4:	00aa2423          	sw	a0,8(s4)
   13ee8:	20050a63          	beqz	a0,140fc <__sfvwrite_r+0x2c8>
   13eec:	02442783          	lw	a5,36(s0)
   13ef0:	01c42583          	lw	a1,28(s0)
   13ef4:	00098613          	mv	a2,s3
   13ef8:	000a8513          	mv	a0,s5
   13efc:	fc0912e3          	bnez	s2,13ec0 <__sfvwrite_r+0x8c>
   13f00:	0004a983          	lw	s3,0(s1)
   13f04:	0044a903          	lw	s2,4(s1)
   13f08:	00848493          	addi	s1,s1,8
   13f0c:	fa9ff06f          	j	13eb4 <__sfvwrite_r+0x80>
   13f10:	00040593          	mv	a1,s0
   13f14:	000a8513          	mv	a0,s5
   13f18:	9bcff0ef          	jal	ra,130d4 <__swsetup_r>
   13f1c:	3c051263          	bnez	a0,142e0 <__sfvwrite_r+0x4ac>
   13f20:	00c45783          	lhu	a5,12(s0)
   13f24:	000a2483          	lw	s1,0(s4)
   13f28:	0027f713          	andi	a4,a5,2
   13f2c:	f60718e3          	bnez	a4,13e9c <__sfvwrite_r+0x68>
   13f30:	0017f713          	andi	a4,a5,1
   13f34:	24071463          	bnez	a4,1417c <__sfvwrite_r+0x348>
   13f38:	00842c83          	lw	s9,8(s0)
   13f3c:	00042503          	lw	a0,0(s0)
   13f40:	80000b37          	lui	s6,0x80000
   13f44:	ffeb4b93          	xori	s7,s6,-2
   13f48:	00000c13          	li	s8,0
   13f4c:	00000913          	li	s2,0
   13f50:	fffb4b13          	not	s6,s6
   13f54:	0e090e63          	beqz	s2,14050 <__sfvwrite_r+0x21c>
   13f58:	2007f713          	andi	a4,a5,512
   13f5c:	24070c63          	beqz	a4,141b4 <__sfvwrite_r+0x380>
   13f60:	000c8d13          	mv	s10,s9
   13f64:	2f996863          	bltu	s2,s9,14254 <__sfvwrite_r+0x420>
   13f68:	4807f713          	andi	a4,a5,1152
   13f6c:	08070a63          	beqz	a4,14000 <__sfvwrite_r+0x1cc>
   13f70:	01442983          	lw	s3,20(s0)
   13f74:	01042583          	lw	a1,16(s0)
   13f78:	00190713          	addi	a4,s2,1
   13f7c:	00199693          	slli	a3,s3,0x1
   13f80:	013686b3          	add	a3,a3,s3
   13f84:	01f6d993          	srli	s3,a3,0x1f
   13f88:	40b50d33          	sub	s10,a0,a1
   13f8c:	00d989b3          	add	s3,s3,a3
   13f90:	4019d993          	srai	s3,s3,0x1
   13f94:	01a70733          	add	a4,a4,s10
   13f98:	00098613          	mv	a2,s3
   13f9c:	00e9f663          	bgeu	s3,a4,13fa8 <__sfvwrite_r+0x174>
   13fa0:	00070993          	mv	s3,a4
   13fa4:	00070613          	mv	a2,a4
   13fa8:	4007f793          	andi	a5,a5,1024
   13fac:	2e078a63          	beqz	a5,142a0 <__sfvwrite_r+0x46c>
   13fb0:	00060593          	mv	a1,a2
   13fb4:	000a8513          	mv	a0,s5
   13fb8:	24c030ef          	jal	ra,17204 <_malloc_r>
   13fbc:	00050c93          	mv	s9,a0
   13fc0:	30050863          	beqz	a0,142d0 <__sfvwrite_r+0x49c>
   13fc4:	01042583          	lw	a1,16(s0)
   13fc8:	000d0613          	mv	a2,s10
   13fcc:	2a5030ef          	jal	ra,17a70 <memcpy>
   13fd0:	00c45783          	lhu	a5,12(s0)
   13fd4:	b7f7f793          	andi	a5,a5,-1153
   13fd8:	0807e793          	ori	a5,a5,128
   13fdc:	00f41623          	sh	a5,12(s0)
   13fe0:	01ac8533          	add	a0,s9,s10
   13fe4:	41a987b3          	sub	a5,s3,s10
   13fe8:	01942823          	sw	s9,16(s0)
   13fec:	00a42023          	sw	a0,0(s0)
   13ff0:	01342a23          	sw	s3,20(s0)
   13ff4:	00090c93          	mv	s9,s2
   13ff8:	00f42423          	sw	a5,8(s0)
   13ffc:	00090d13          	mv	s10,s2
   14000:	000d0613          	mv	a2,s10
   14004:	000c0593          	mv	a1,s8
   14008:	385030ef          	jal	ra,17b8c <memmove>
   1400c:	00842703          	lw	a4,8(s0)
   14010:	00042783          	lw	a5,0(s0)
   14014:	00090993          	mv	s3,s2
   14018:	41970cb3          	sub	s9,a4,s9
   1401c:	01a787b3          	add	a5,a5,s10
   14020:	01942423          	sw	s9,8(s0)
   14024:	00f42023          	sw	a5,0(s0)
   14028:	00000913          	li	s2,0
   1402c:	008a2603          	lw	a2,8(s4)
   14030:	013c0c33          	add	s8,s8,s3
   14034:	413609b3          	sub	s3,a2,s3
   14038:	013a2423          	sw	s3,8(s4)
   1403c:	0c098063          	beqz	s3,140fc <__sfvwrite_r+0x2c8>
   14040:	00842c83          	lw	s9,8(s0)
   14044:	00042503          	lw	a0,0(s0)
   14048:	00c45783          	lhu	a5,12(s0)
   1404c:	f00916e3          	bnez	s2,13f58 <__sfvwrite_r+0x124>
   14050:	0004ac03          	lw	s8,0(s1)
   14054:	0044a903          	lw	s2,4(s1)
   14058:	00848493          	addi	s1,s1,8
   1405c:	ef9ff06f          	j	13f54 <__sfvwrite_r+0x120>
   14060:	0044a983          	lw	s3,4(s1)
   14064:	0004ac03          	lw	s8,0(s1)
   14068:	00848493          	addi	s1,s1,8
   1406c:	fe098ae3          	beqz	s3,14060 <__sfvwrite_r+0x22c>
   14070:	00098613          	mv	a2,s3
   14074:	00a00593          	li	a1,10
   14078:	000c0513          	mv	a0,s8
   1407c:	121030ef          	jal	ra,1799c <memchr>
   14080:	12050463          	beqz	a0,141a8 <__sfvwrite_r+0x374>
   14084:	00150513          	addi	a0,a0,1
   14088:	41850b33          	sub	s6,a0,s8
   1408c:	000b0793          	mv	a5,s6
   14090:	00098b93          	mv	s7,s3
   14094:	0137f463          	bgeu	a5,s3,1409c <__sfvwrite_r+0x268>
   14098:	00078b93          	mv	s7,a5
   1409c:	00042503          	lw	a0,0(s0)
   140a0:	01042783          	lw	a5,16(s0)
   140a4:	01442683          	lw	a3,20(s0)
   140a8:	00a7f863          	bgeu	a5,a0,140b8 <__sfvwrite_r+0x284>
   140ac:	00842903          	lw	s2,8(s0)
   140b0:	01268933          	add	s2,a3,s2
   140b4:	09794263          	blt	s2,s7,14138 <__sfvwrite_r+0x304>
   140b8:	1adbce63          	blt	s7,a3,14274 <__sfvwrite_r+0x440>
   140bc:	02442783          	lw	a5,36(s0)
   140c0:	01c42583          	lw	a1,28(s0)
   140c4:	000c0613          	mv	a2,s8
   140c8:	000a8513          	mv	a0,s5
   140cc:	000780e7          	jalr	a5
   140d0:	00050913          	mv	s2,a0
   140d4:	08a05663          	blez	a0,14160 <__sfvwrite_r+0x32c>
   140d8:	412b0b33          	sub	s6,s6,s2
   140dc:	00100513          	li	a0,1
   140e0:	180b0063          	beqz	s6,14260 <__sfvwrite_r+0x42c>
   140e4:	008a2603          	lw	a2,8(s4)
   140e8:	012c0c33          	add	s8,s8,s2
   140ec:	412989b3          	sub	s3,s3,s2
   140f0:	41260933          	sub	s2,a2,s2
   140f4:	012a2423          	sw	s2,8(s4)
   140f8:	08091a63          	bnez	s2,1418c <__sfvwrite_r+0x358>
   140fc:	00000513          	li	a0,0
   14100:	02c12083          	lw	ra,44(sp)
   14104:	02812403          	lw	s0,40(sp)
   14108:	02412483          	lw	s1,36(sp)
   1410c:	02012903          	lw	s2,32(sp)
   14110:	01c12983          	lw	s3,28(sp)
   14114:	01812a03          	lw	s4,24(sp)
   14118:	01412a83          	lw	s5,20(sp)
   1411c:	01012b03          	lw	s6,16(sp)
   14120:	00c12b83          	lw	s7,12(sp)
   14124:	00812c03          	lw	s8,8(sp)
   14128:	00412c83          	lw	s9,4(sp)
   1412c:	00012d03          	lw	s10,0(sp)
   14130:	03010113          	addi	sp,sp,48
   14134:	00008067          	ret
   14138:	000c0593          	mv	a1,s8
   1413c:	00090613          	mv	a2,s2
   14140:	24d030ef          	jal	ra,17b8c <memmove>
   14144:	00042783          	lw	a5,0(s0)
   14148:	00040593          	mv	a1,s0
   1414c:	000a8513          	mv	a0,s5
   14150:	012787b3          	add	a5,a5,s2
   14154:	00f42023          	sw	a5,0(s0)
   14158:	c68ff0ef          	jal	ra,135c0 <_fflush_r>
   1415c:	f6050ee3          	beqz	a0,140d8 <__sfvwrite_r+0x2a4>
   14160:	00c41783          	lh	a5,12(s0)
   14164:	0407e793          	ori	a5,a5,64
   14168:	00f41623          	sh	a5,12(s0)
   1416c:	fff00513          	li	a0,-1
   14170:	f91ff06f          	j	14100 <__sfvwrite_r+0x2cc>
   14174:	00000513          	li	a0,0
   14178:	00008067          	ret
   1417c:	00000b13          	li	s6,0
   14180:	00000513          	li	a0,0
   14184:	00000c13          	li	s8,0
   14188:	00000993          	li	s3,0
   1418c:	ec098ae3          	beqz	s3,14060 <__sfvwrite_r+0x22c>
   14190:	ee051ee3          	bnez	a0,1408c <__sfvwrite_r+0x258>
   14194:	00098613          	mv	a2,s3
   14198:	00a00593          	li	a1,10
   1419c:	000c0513          	mv	a0,s8
   141a0:	7fc030ef          	jal	ra,1799c <memchr>
   141a4:	ee0510e3          	bnez	a0,14084 <__sfvwrite_r+0x250>
   141a8:	00198793          	addi	a5,s3,1
   141ac:	00078b13          	mv	s6,a5
   141b0:	ee1ff06f          	j	14090 <__sfvwrite_r+0x25c>
   141b4:	01042783          	lw	a5,16(s0)
   141b8:	04a7e863          	bltu	a5,a0,14208 <__sfvwrite_r+0x3d4>
   141bc:	01442983          	lw	s3,20(s0)
   141c0:	05396463          	bltu	s2,s3,14208 <__sfvwrite_r+0x3d4>
   141c4:	00090513          	mv	a0,s2
   141c8:	012bf463          	bgeu	s7,s2,141d0 <__sfvwrite_r+0x39c>
   141cc:	000b0513          	mv	a0,s6
   141d0:	00098593          	mv	a1,s3
   141d4:	514100ef          	jal	ra,246e8 <__divsi3>
   141d8:	00098593          	mv	a1,s3
   141dc:	4e8100ef          	jal	ra,246c4 <__mulsi3>
   141e0:	02442783          	lw	a5,36(s0)
   141e4:	01c42583          	lw	a1,28(s0)
   141e8:	00050693          	mv	a3,a0
   141ec:	000c0613          	mv	a2,s8
   141f0:	000a8513          	mv	a0,s5
   141f4:	000780e7          	jalr	a5
   141f8:	00050993          	mv	s3,a0
   141fc:	f6a052e3          	blez	a0,14160 <__sfvwrite_r+0x32c>
   14200:	41390933          	sub	s2,s2,s3
   14204:	e29ff06f          	j	1402c <__sfvwrite_r+0x1f8>
   14208:	000c8993          	mv	s3,s9
   1420c:	01997463          	bgeu	s2,s9,14214 <__sfvwrite_r+0x3e0>
   14210:	00090993          	mv	s3,s2
   14214:	00098613          	mv	a2,s3
   14218:	000c0593          	mv	a1,s8
   1421c:	171030ef          	jal	ra,17b8c <memmove>
   14220:	00842783          	lw	a5,8(s0)
   14224:	00042703          	lw	a4,0(s0)
   14228:	413787b3          	sub	a5,a5,s3
   1422c:	01370733          	add	a4,a4,s3
   14230:	00f42423          	sw	a5,8(s0)
   14234:	00e42023          	sw	a4,0(s0)
   14238:	fc0794e3          	bnez	a5,14200 <__sfvwrite_r+0x3cc>
   1423c:	00040593          	mv	a1,s0
   14240:	000a8513          	mv	a0,s5
   14244:	b7cff0ef          	jal	ra,135c0 <_fflush_r>
   14248:	f0051ce3          	bnez	a0,14160 <__sfvwrite_r+0x32c>
   1424c:	41390933          	sub	s2,s2,s3
   14250:	dddff06f          	j	1402c <__sfvwrite_r+0x1f8>
   14254:	00090c93          	mv	s9,s2
   14258:	00090d13          	mv	s10,s2
   1425c:	da5ff06f          	j	14000 <__sfvwrite_r+0x1cc>
   14260:	00040593          	mv	a1,s0
   14264:	000a8513          	mv	a0,s5
   14268:	b58ff0ef          	jal	ra,135c0 <_fflush_r>
   1426c:	e6050ce3          	beqz	a0,140e4 <__sfvwrite_r+0x2b0>
   14270:	ef1ff06f          	j	14160 <__sfvwrite_r+0x32c>
   14274:	000b8613          	mv	a2,s7
   14278:	000c0593          	mv	a1,s8
   1427c:	111030ef          	jal	ra,17b8c <memmove>
   14280:	00842783          	lw	a5,8(s0)
   14284:	00042603          	lw	a2,0(s0)
   14288:	000b8913          	mv	s2,s7
   1428c:	417787b3          	sub	a5,a5,s7
   14290:	01760633          	add	a2,a2,s7
   14294:	00f42423          	sw	a5,8(s0)
   14298:	00c42023          	sw	a2,0(s0)
   1429c:	e3dff06f          	j	140d8 <__sfvwrite_r+0x2a4>
   142a0:	000a8513          	mv	a0,s5
   142a4:	329040ef          	jal	ra,18dcc <_realloc_r>
   142a8:	00050c93          	mv	s9,a0
   142ac:	d2051ae3          	bnez	a0,13fe0 <__sfvwrite_r+0x1ac>
   142b0:	01042583          	lw	a1,16(s0)
   142b4:	000a8513          	mv	a0,s5
   142b8:	87dff0ef          	jal	ra,13b34 <_free_r>
   142bc:	00c41783          	lh	a5,12(s0)
   142c0:	00c00713          	li	a4,12
   142c4:	00eaa023          	sw	a4,0(s5)
   142c8:	f7f7f793          	andi	a5,a5,-129
   142cc:	e99ff06f          	j	14164 <__sfvwrite_r+0x330>
   142d0:	00c00713          	li	a4,12
   142d4:	00c41783          	lh	a5,12(s0)
   142d8:	00eaa023          	sw	a4,0(s5)
   142dc:	e89ff06f          	j	14164 <__sfvwrite_r+0x330>
   142e0:	fff00513          	li	a0,-1
   142e4:	e1dff06f          	j	14100 <__sfvwrite_r+0x2cc>

000142e8 <_fwalk>:
   142e8:	fe010113          	addi	sp,sp,-32
   142ec:	01212823          	sw	s2,16(sp)
   142f0:	01312623          	sw	s3,12(sp)
   142f4:	01412423          	sw	s4,8(sp)
   142f8:	01512223          	sw	s5,4(sp)
   142fc:	01612023          	sw	s6,0(sp)
   14300:	00112e23          	sw	ra,28(sp)
   14304:	00812c23          	sw	s0,24(sp)
   14308:	00912a23          	sw	s1,20(sp)
   1430c:	00058b13          	mv	s6,a1
   14310:	2e050a93          	addi	s5,a0,736
   14314:	00000a13          	li	s4,0
   14318:	00100993          	li	s3,1
   1431c:	fff00913          	li	s2,-1
   14320:	004aa483          	lw	s1,4(s5)
   14324:	008aa403          	lw	s0,8(s5)
   14328:	fff48493          	addi	s1,s1,-1
   1432c:	0204c663          	bltz	s1,14358 <_fwalk+0x70>
   14330:	00c45783          	lhu	a5,12(s0)
   14334:	fff48493          	addi	s1,s1,-1
   14338:	00f9fc63          	bgeu	s3,a5,14350 <_fwalk+0x68>
   1433c:	00e41783          	lh	a5,14(s0)
   14340:	00040513          	mv	a0,s0
   14344:	01278663          	beq	a5,s2,14350 <_fwalk+0x68>
   14348:	000b00e7          	jalr	s6 # 80000000 <__BSS_END__+0x7ffd9030>
   1434c:	00aa6a33          	or	s4,s4,a0
   14350:	06840413          	addi	s0,s0,104
   14354:	fd249ee3          	bne	s1,s2,14330 <_fwalk+0x48>
   14358:	000aaa83          	lw	s5,0(s5)
   1435c:	fc0a92e3          	bnez	s5,14320 <_fwalk+0x38>
   14360:	01c12083          	lw	ra,28(sp)
   14364:	01812403          	lw	s0,24(sp)
   14368:	01412483          	lw	s1,20(sp)
   1436c:	01012903          	lw	s2,16(sp)
   14370:	00c12983          	lw	s3,12(sp)
   14374:	00412a83          	lw	s5,4(sp)
   14378:	00012b03          	lw	s6,0(sp)
   1437c:	000a0513          	mv	a0,s4
   14380:	00812a03          	lw	s4,8(sp)
   14384:	02010113          	addi	sp,sp,32
   14388:	00008067          	ret

0001438c <_fwalk_reent>:
   1438c:	fd010113          	addi	sp,sp,-48
   14390:	03212023          	sw	s2,32(sp)
   14394:	01312e23          	sw	s3,28(sp)
   14398:	01412c23          	sw	s4,24(sp)
   1439c:	01512a23          	sw	s5,20(sp)
   143a0:	01612823          	sw	s6,16(sp)
   143a4:	01712623          	sw	s7,12(sp)
   143a8:	02112623          	sw	ra,44(sp)
   143ac:	02812423          	sw	s0,40(sp)
   143b0:	02912223          	sw	s1,36(sp)
   143b4:	00050a93          	mv	s5,a0
   143b8:	00058b93          	mv	s7,a1
   143bc:	2e050b13          	addi	s6,a0,736
   143c0:	00000a13          	li	s4,0
   143c4:	00100993          	li	s3,1
   143c8:	fff00913          	li	s2,-1
   143cc:	004b2483          	lw	s1,4(s6)
   143d0:	008b2403          	lw	s0,8(s6)
   143d4:	fff48493          	addi	s1,s1,-1
   143d8:	0204c863          	bltz	s1,14408 <_fwalk_reent+0x7c>
   143dc:	00c45783          	lhu	a5,12(s0)
   143e0:	fff48493          	addi	s1,s1,-1
   143e4:	00f9fe63          	bgeu	s3,a5,14400 <_fwalk_reent+0x74>
   143e8:	00e41783          	lh	a5,14(s0)
   143ec:	00040593          	mv	a1,s0
   143f0:	000a8513          	mv	a0,s5
   143f4:	01278663          	beq	a5,s2,14400 <_fwalk_reent+0x74>
   143f8:	000b80e7          	jalr	s7
   143fc:	00aa6a33          	or	s4,s4,a0
   14400:	06840413          	addi	s0,s0,104
   14404:	fd249ce3          	bne	s1,s2,143dc <_fwalk_reent+0x50>
   14408:	000b2b03          	lw	s6,0(s6)
   1440c:	fc0b10e3          	bnez	s6,143cc <_fwalk_reent+0x40>
   14410:	02c12083          	lw	ra,44(sp)
   14414:	02812403          	lw	s0,40(sp)
   14418:	02412483          	lw	s1,36(sp)
   1441c:	02012903          	lw	s2,32(sp)
   14420:	01c12983          	lw	s3,28(sp)
   14424:	01412a83          	lw	s5,20(sp)
   14428:	01012b03          	lw	s6,16(sp)
   1442c:	00c12b83          	lw	s7,12(sp)
   14430:	000a0513          	mv	a0,s4
   14434:	01812a03          	lw	s4,24(sp)
   14438:	03010113          	addi	sp,sp,48
   1443c:	00008067          	ret

00014440 <eshdn1>:
   14440:	00450693          	addi	a3,a0,4
   14444:	00000793          	li	a5,0
   14448:	01a50513          	addi	a0,a0,26
   1444c:	ffff8837          	lui	a6,0xffff8
   14450:	01c0006f          	j	1446c <eshdn1+0x2c>
   14454:	00179793          	slli	a5,a5,0x1
   14458:	00e69023          	sh	a4,0(a3)
   1445c:	01079793          	slli	a5,a5,0x10
   14460:	00268693          	addi	a3,a3,2
   14464:	0107d793          	srli	a5,a5,0x10
   14468:	02d50e63          	beq	a0,a3,144a4 <eshdn1+0x64>
   1446c:	0006d703          	lhu	a4,0(a3)
   14470:	00177613          	andi	a2,a4,1
   14474:	00060463          	beqz	a2,1447c <eshdn1+0x3c>
   14478:	0017e793          	ori	a5,a5,1
   1447c:	00175713          	srli	a4,a4,0x1
   14480:	0027f613          	andi	a2,a5,2
   14484:	010765b3          	or	a1,a4,a6
   14488:	fc0606e3          	beqz	a2,14454 <eshdn1+0x14>
   1448c:	00179793          	slli	a5,a5,0x1
   14490:	00b69023          	sh	a1,0(a3)
   14494:	01079793          	slli	a5,a5,0x10
   14498:	00268693          	addi	a3,a3,2
   1449c:	0107d793          	srli	a5,a5,0x10
   144a0:	fcd516e3          	bne	a0,a3,1446c <eshdn1+0x2c>
   144a4:	00008067          	ret

000144a8 <eshup1>:
   144a8:	01850693          	addi	a3,a0,24
   144ac:	00000713          	li	a4,0
   144b0:	00250513          	addi	a0,a0,2
   144b4:	01c0006f          	j	144d0 <eshup1+0x28>
   144b8:	00171713          	slli	a4,a4,0x1
   144bc:	00f69023          	sh	a5,0(a3)
   144c0:	01071713          	slli	a4,a4,0x10
   144c4:	ffe68693          	addi	a3,a3,-2
   144c8:	01075713          	srli	a4,a4,0x10
   144cc:	04d50463          	beq	a0,a3,14514 <eshup1+0x6c>
   144d0:	0006d783          	lhu	a5,0(a3)
   144d4:	01079613          	slli	a2,a5,0x10
   144d8:	41065613          	srai	a2,a2,0x10
   144dc:	00179793          	slli	a5,a5,0x1
   144e0:	00065463          	bgez	a2,144e8 <eshup1+0x40>
   144e4:	00176713          	ori	a4,a4,1
   144e8:	01079793          	slli	a5,a5,0x10
   144ec:	0107d793          	srli	a5,a5,0x10
   144f0:	00277613          	andi	a2,a4,2
   144f4:	0017e593          	ori	a1,a5,1
   144f8:	fc0600e3          	beqz	a2,144b8 <eshup1+0x10>
   144fc:	00171713          	slli	a4,a4,0x1
   14500:	00b69023          	sh	a1,0(a3)
   14504:	01071713          	slli	a4,a4,0x10
   14508:	ffe68693          	addi	a3,a3,-2
   1450c:	01075713          	srli	a4,a4,0x10
   14510:	fcd510e3          	bne	a0,a3,144d0 <eshup1+0x28>
   14514:	00008067          	ret

00014518 <m16m>:
   14518:	fc010113          	addi	sp,sp,-64
   1451c:	03312623          	sw	s3,44(sp)
   14520:	000109b7          	lui	s3,0x10
   14524:	02812c23          	sw	s0,56(sp)
   14528:	02912a23          	sw	s1,52(sp)
   1452c:	03212823          	sw	s2,48(sp)
   14530:	03412423          	sw	s4,40(sp)
   14534:	03512223          	sw	s5,36(sp)
   14538:	02112e23          	sw	ra,60(sp)
   1453c:	00050a13          	mv	s4,a0
   14540:	00060493          	mv	s1,a2
   14544:	00011d23          	sh	zero,26(sp)
   14548:	00011e23          	sh	zero,28(sp)
   1454c:	01858913          	addi	s2,a1,24
   14550:	01c10413          	addi	s0,sp,28
   14554:	00810a93          	addi	s5,sp,8
   14558:	fff98993          	addi	s3,s3,-1 # ffff <register_fini-0x75>
   1455c:	00095503          	lhu	a0,0(s2)
   14560:	000a0593          	mv	a1,s4
   14564:	ffe40413          	addi	s0,s0,-2
   14568:	ffe90913          	addi	s2,s2,-2
   1456c:	04051663          	bnez	a0,145b8 <m16m+0xa0>
   14570:	fe041f23          	sh	zero,-2(s0)
   14574:	ff5414e3          	bne	s0,s5,1455c <m16m+0x44>
   14578:	00448613          	addi	a2,s1,4
   1457c:	01e10713          	addi	a4,sp,30
   14580:	00045783          	lhu	a5,0(s0)
   14584:	00240413          	addi	s0,s0,2
   14588:	00260613          	addi	a2,a2,2
   1458c:	fef61f23          	sh	a5,-2(a2)
   14590:	fee418e3          	bne	s0,a4,14580 <m16m+0x68>
   14594:	03c12083          	lw	ra,60(sp)
   14598:	03812403          	lw	s0,56(sp)
   1459c:	03412483          	lw	s1,52(sp)
   145a0:	03012903          	lw	s2,48(sp)
   145a4:	02c12983          	lw	s3,44(sp)
   145a8:	02812a03          	lw	s4,40(sp)
   145ac:	02412a83          	lw	s5,36(sp)
   145b0:	04010113          	addi	sp,sp,64
   145b4:	00008067          	ret
   145b8:	10c100ef          	jal	ra,246c4 <__mulsi3>
   145bc:	00245783          	lhu	a5,2(s0)
   145c0:	00045603          	lhu	a2,0(s0)
   145c4:	01357733          	and	a4,a0,s3
   145c8:	00f70733          	add	a4,a4,a5
   145cc:	01055793          	srli	a5,a0,0x10
   145d0:	01075693          	srli	a3,a4,0x10
   145d4:	00c787b3          	add	a5,a5,a2
   145d8:	00d787b3          	add	a5,a5,a3
   145dc:	0107d693          	srli	a3,a5,0x10
   145e0:	00e41123          	sh	a4,2(s0)
   145e4:	00f41023          	sh	a5,0(s0)
   145e8:	fed41f23          	sh	a3,-2(s0)
   145ec:	f75418e3          	bne	s0,s5,1455c <m16m+0x44>
   145f0:	f89ff06f          	j	14578 <m16m+0x60>

000145f4 <eisnan.part.0>:
   145f4:	01250713          	addi	a4,a0,18
   145f8:	00055783          	lhu	a5,0(a0)
   145fc:	00250513          	addi	a0,a0,2
   14600:	00079863          	bnez	a5,14610 <eisnan.part.0+0x1c>
   14604:	fee51ae3          	bne	a0,a4,145f8 <eisnan.part.0+0x4>
   14608:	00000513          	li	a0,0
   1460c:	00008067          	ret
   14610:	00100513          	li	a0,1
   14614:	00008067          	ret

00014618 <eneg>:
   14618:	ff010113          	addi	sp,sp,-16
   1461c:	00912223          	sw	s1,4(sp)
   14620:	01255483          	lhu	s1,18(a0)
   14624:	00812423          	sw	s0,8(sp)
   14628:	00112623          	sw	ra,12(sp)
   1462c:	fff4c793          	not	a5,s1
   14630:	01179713          	slli	a4,a5,0x11
   14634:	00050413          	mv	s0,a0
   14638:	00071663          	bnez	a4,14644 <eneg+0x2c>
   1463c:	fb9ff0ef          	jal	ra,145f4 <eisnan.part.0>
   14640:	00051863          	bnez	a0,14650 <eneg+0x38>
   14644:	ffff87b7          	lui	a5,0xffff8
   14648:	00f4c4b3          	xor	s1,s1,a5
   1464c:	00941923          	sh	s1,18(s0)
   14650:	00c12083          	lw	ra,12(sp)
   14654:	00812403          	lw	s0,8(sp)
   14658:	00412483          	lw	s1,4(sp)
   1465c:	01010113          	addi	sp,sp,16
   14660:	00008067          	ret

00014664 <eisneg>:
   14664:	ff010113          	addi	sp,sp,-16
   14668:	00812423          	sw	s0,8(sp)
   1466c:	01255403          	lhu	s0,18(a0)
   14670:	00112623          	sw	ra,12(sp)
   14674:	fff44793          	not	a5,s0
   14678:	01179713          	slli	a4,a5,0x11
   1467c:	00071a63          	bnez	a4,14690 <eisneg+0x2c>
   14680:	f75ff0ef          	jal	ra,145f4 <eisnan.part.0>
   14684:	00050793          	mv	a5,a0
   14688:	00000513          	li	a0,0
   1468c:	00079463          	bnez	a5,14694 <eisneg+0x30>
   14690:	00f45513          	srli	a0,s0,0xf
   14694:	00c12083          	lw	ra,12(sp)
   14698:	00812403          	lw	s0,8(sp)
   1469c:	01010113          	addi	sp,sp,16
   146a0:	00008067          	ret

000146a4 <emovi>:
   146a4:	01255783          	lhu	a5,18(a0)
   146a8:	fd010113          	addi	sp,sp,-48
   146ac:	02812423          	sw	s0,40(sp)
   146b0:	00f7d793          	srli	a5,a5,0xf
   146b4:	02912223          	sw	s1,36(sp)
   146b8:	02112623          	sw	ra,44(sp)
   146bc:	03212023          	sw	s2,32(sp)
   146c0:	01312e23          	sw	s3,28(sp)
   146c4:	40f007b3          	neg	a5,a5
   146c8:	00f59023          	sh	a5,0(a1)
   146cc:	01255783          	lhu	a5,18(a0)
   146d0:	00008737          	lui	a4,0x8
   146d4:	fff70713          	addi	a4,a4,-1 # 7fff <register_fini-0x8075>
   146d8:	00f777b3          	and	a5,a4,a5
   146dc:	00f59123          	sh	a5,2(a1)
   146e0:	00050493          	mv	s1,a0
   146e4:	01050413          	addi	s0,a0,16
   146e8:	04e78263          	beq	a5,a4,1472c <emovi+0x88>
   146ec:	00658793          	addi	a5,a1,6
   146f0:	00059223          	sh	zero,4(a1)
   146f4:	ffe50513          	addi	a0,a0,-2
   146f8:	00045703          	lhu	a4,0(s0)
   146fc:	ffe40413          	addi	s0,s0,-2
   14700:	00278793          	addi	a5,a5,2 # ffff8002 <__BSS_END__+0xfffd1032>
   14704:	fee79f23          	sh	a4,-2(a5)
   14708:	fe8518e3          	bne	a0,s0,146f8 <emovi+0x54>
   1470c:	00059c23          	sh	zero,24(a1)
   14710:	02c12083          	lw	ra,44(sp)
   14714:	02812403          	lw	s0,40(sp)
   14718:	02412483          	lw	s1,36(sp)
   1471c:	02012903          	lw	s2,32(sp)
   14720:	01c12983          	lw	s3,28(sp)
   14724:	03010113          	addi	sp,sp,48
   14728:	00008067          	ret
   1472c:	01255703          	lhu	a4,18(a0)
   14730:	00458913          	addi	s2,a1,4
   14734:	00e7f733          	and	a4,a5,a4
   14738:	02f71c63          	bne	a4,a5,14770 <emovi+0xcc>
   1473c:	00b12623          	sw	a1,12(sp)
   14740:	eb5ff0ef          	jal	ra,145f4 <eisnan.part.0>
   14744:	00c12583          	lw	a1,12(sp)
   14748:	02050463          	beqz	a0,14770 <emovi+0xcc>
   1474c:	00658793          	addi	a5,a1,6
   14750:	00059223          	sh	zero,4(a1)
   14754:	ffc48513          	addi	a0,s1,-4
   14758:	00045703          	lhu	a4,0(s0)
   1475c:	ffe40413          	addi	s0,s0,-2
   14760:	00278793          	addi	a5,a5,2
   14764:	fee79f23          	sh	a4,-2(a5)
   14768:	fe8518e3          	bne	a0,s0,14758 <emovi+0xb4>
   1476c:	fa5ff06f          	j	14710 <emovi+0x6c>
   14770:	01a58993          	addi	s3,a1,26
   14774:	00290913          	addi	s2,s2,2
   14778:	fe091f23          	sh	zero,-2(s2)
   1477c:	ff299ce3          	bne	s3,s2,14774 <emovi+0xd0>
   14780:	02c12083          	lw	ra,44(sp)
   14784:	02812403          	lw	s0,40(sp)
   14788:	02412483          	lw	s1,36(sp)
   1478c:	02012903          	lw	s2,32(sp)
   14790:	01c12983          	lw	s3,28(sp)
   14794:	03010113          	addi	sp,sp,48
   14798:	00008067          	ret

0001479c <ecmp>:
   1479c:	01255783          	lhu	a5,18(a0)
   147a0:	fb010113          	addi	sp,sp,-80
   147a4:	04812423          	sw	s0,72(sp)
   147a8:	fff7c793          	not	a5,a5
   147ac:	04912223          	sw	s1,68(sp)
   147b0:	04112623          	sw	ra,76(sp)
   147b4:	01179713          	slli	a4,a5,0x11
   147b8:	00050493          	mv	s1,a0
   147bc:	00058413          	mv	s0,a1
   147c0:	00071663          	bnez	a4,147cc <ecmp+0x30>
   147c4:	e31ff0ef          	jal	ra,145f4 <eisnan.part.0>
   147c8:	08051263          	bnez	a0,1484c <ecmp+0xb0>
   147cc:	01245783          	lhu	a5,18(s0)
   147d0:	fff7c793          	not	a5,a5
   147d4:	01179713          	slli	a4,a5,0x11
   147d8:	06070463          	beqz	a4,14840 <ecmp+0xa4>
   147dc:	00810593          	addi	a1,sp,8
   147e0:	00048513          	mv	a0,s1
   147e4:	ec1ff0ef          	jal	ra,146a4 <emovi>
   147e8:	02410593          	addi	a1,sp,36
   147ec:	00040513          	mv	a0,s0
   147f0:	eb5ff0ef          	jal	ra,146a4 <emovi>
   147f4:	00815583          	lhu	a1,8(sp)
   147f8:	02415503          	lhu	a0,36(sp)
   147fc:	04b50c63          	beq	a0,a1,14854 <ecmp+0xb8>
   14800:	00a10793          	addi	a5,sp,10
   14804:	02610713          	addi	a4,sp,38
   14808:	02010613          	addi	a2,sp,32
   1480c:	0007d683          	lhu	a3,0(a5)
   14810:	00278793          	addi	a5,a5,2
   14814:	08069a63          	bnez	a3,148a8 <ecmp+0x10c>
   14818:	00075683          	lhu	a3,0(a4)
   1481c:	00270713          	addi	a4,a4,2
   14820:	08069463          	bnez	a3,148a8 <ecmp+0x10c>
   14824:	fec794e3          	bne	a5,a2,1480c <ecmp+0x70>
   14828:	00000513          	li	a0,0
   1482c:	04c12083          	lw	ra,76(sp)
   14830:	04812403          	lw	s0,72(sp)
   14834:	04412483          	lw	s1,68(sp)
   14838:	05010113          	addi	sp,sp,80
   1483c:	00008067          	ret
   14840:	00040513          	mv	a0,s0
   14844:	db1ff0ef          	jal	ra,145f4 <eisnan.part.0>
   14848:	f8050ae3          	beqz	a0,147dc <ecmp+0x40>
   1484c:	ffe00513          	li	a0,-2
   14850:	fddff06f          	j	1482c <ecmp+0x90>
   14854:	00153513          	seqz	a0,a0
   14858:	00a15603          	lhu	a2,10(sp)
   1485c:	02615683          	lhu	a3,38(sp)
   14860:	40a00533          	neg	a0,a0
   14864:	00a10713          	addi	a4,sp,10
   14868:	02610793          	addi	a5,sp,38
   1486c:	00257513          	andi	a0,a0,2
   14870:	fff50513          	addi	a0,a0,-1
   14874:	03c10593          	addi	a1,sp,60
   14878:	00278793          	addi	a5,a5,2
   1487c:	00270713          	addi	a4,a4,2
   14880:	00d61e63          	bne	a2,a3,1489c <ecmp+0x100>
   14884:	fab782e3          	beq	a5,a1,14828 <ecmp+0x8c>
   14888:	00075603          	lhu	a2,0(a4)
   1488c:	0007d683          	lhu	a3,0(a5)
   14890:	00270713          	addi	a4,a4,2
   14894:	00278793          	addi	a5,a5,2
   14898:	fed606e3          	beq	a2,a3,14884 <ecmp+0xe8>
   1489c:	f8c6e8e3          	bltu	a3,a2,1482c <ecmp+0x90>
   148a0:	40a00533          	neg	a0,a0
   148a4:	f89ff06f          	j	1482c <ecmp+0x90>
   148a8:	00100513          	li	a0,1
   148ac:	f80580e3          	beqz	a1,1482c <ecmp+0x90>
   148b0:	fff00513          	li	a0,-1
   148b4:	f79ff06f          	j	1482c <ecmp+0x90>

000148b8 <eisinf.part.0>:
   148b8:	ff010113          	addi	sp,sp,-16
   148bc:	00112623          	sw	ra,12(sp)
   148c0:	d35ff0ef          	jal	ra,145f4 <eisnan.part.0>
   148c4:	00c12083          	lw	ra,12(sp)
   148c8:	00153513          	seqz	a0,a0
   148cc:	01010113          	addi	sp,sp,16
   148d0:	00008067          	ret

000148d4 <eshift.part.0>:
   148d4:	fe010113          	addi	sp,sp,-32
   148d8:	00812c23          	sw	s0,24(sp)
   148dc:	00912a23          	sw	s1,20(sp)
   148e0:	00112e23          	sw	ra,28(sp)
   148e4:	01212823          	sw	s2,16(sp)
   148e8:	01312623          	sw	s3,12(sp)
   148ec:	00058493          	mv	s1,a1
   148f0:	00050413          	mv	s0,a0
   148f4:	0a05c463          	bltz	a1,1499c <eshift.part.0+0xc8>
   148f8:	00f00793          	li	a5,15
   148fc:	00058613          	mv	a2,a1
   14900:	00450513          	addi	a0,a0,4
   14904:	01840693          	addi	a3,s0,24
   14908:	00f00593          	li	a1,15
   1490c:	0297d463          	bge	a5,s1,14934 <eshift.part.0+0x60>
   14910:	00050793          	mv	a5,a0
   14914:	0027d703          	lhu	a4,2(a5)
   14918:	00278793          	addi	a5,a5,2
   1491c:	fee79f23          	sh	a4,-2(a5)
   14920:	fed79ae3          	bne	a5,a3,14914 <eshift.part.0+0x40>
   14924:	00041c23          	sh	zero,24(s0)
   14928:	ff060613          	addi	a2,a2,-16
   1492c:	fec5c2e3          	blt	a1,a2,14910 <eshift.part.0+0x3c>
   14930:	00f4f493          	andi	s1,s1,15
   14934:	00700793          	li	a5,7
   14938:	0297d863          	bge	a5,s1,14968 <eshift.part.0+0x94>
   1493c:	01840713          	addi	a4,s0,24
   14940:	00240593          	addi	a1,s0,2
   14944:	00000793          	li	a5,0
   14948:	00075683          	lhu	a3,0(a4)
   1494c:	ffe70713          	addi	a4,a4,-2
   14950:	00869613          	slli	a2,a3,0x8
   14954:	00c7e7b3          	or	a5,a5,a2
   14958:	00f71123          	sh	a5,2(a4)
   1495c:	0086d793          	srli	a5,a3,0x8
   14960:	feb714e3          	bne	a4,a1,14948 <eshift.part.0+0x74>
   14964:	ff848493          	addi	s1,s1,-8
   14968:	00048a63          	beqz	s1,1497c <eshift.part.0+0xa8>
   1496c:	fff48493          	addi	s1,s1,-1
   14970:	00040513          	mv	a0,s0
   14974:	b35ff0ef          	jal	ra,144a8 <eshup1>
   14978:	fe049ae3          	bnez	s1,1496c <eshift.part.0+0x98>
   1497c:	00000513          	li	a0,0
   14980:	01c12083          	lw	ra,28(sp)
   14984:	01812403          	lw	s0,24(sp)
   14988:	01412483          	lw	s1,20(sp)
   1498c:	01012903          	lw	s2,16(sp)
   14990:	00c12983          	lw	s3,12(sp)
   14994:	02010113          	addi	sp,sp,32
   14998:	00008067          	ret
   1499c:	ff100793          	li	a5,-15
   149a0:	40b00933          	neg	s2,a1
   149a4:	12f5dc63          	bge	a1,a5,14adc <eshift.part.0+0x208>
   149a8:	01850593          	addi	a1,a0,24
   149ac:	00000993          	li	s3,0
   149b0:	00450693          	addi	a3,a0,4
   149b4:	00f00613          	li	a2,15
   149b8:	01845703          	lhu	a4,24(s0)
   149bc:	00058793          	mv	a5,a1
   149c0:	00e9e9b3          	or	s3,s3,a4
   149c4:	ffe7d703          	lhu	a4,-2(a5)
   149c8:	ffe78793          	addi	a5,a5,-2
   149cc:	00e79123          	sh	a4,2(a5)
   149d0:	fed79ae3          	bne	a5,a3,149c4 <eshift.part.0+0xf0>
   149d4:	00041223          	sh	zero,4(s0)
   149d8:	ff090913          	addi	s2,s2,-16
   149dc:	fd264ee3          	blt	a2,s2,149b8 <eshift.part.0+0xe4>
   149e0:	ff000793          	li	a5,-16
   149e4:	ff100713          	li	a4,-15
   149e8:	409787b3          	sub	a5,a5,s1
   149ec:	00000913          	li	s2,0
   149f0:	0ae4c463          	blt	s1,a4,14a98 <eshift.part.0+0x1c4>
   149f4:	00f90933          	add	s2,s2,a5
   149f8:	00700793          	li	a5,7
   149fc:	0527d663          	bge	a5,s2,14a48 <eshift.part.0+0x174>
   14a00:	01099993          	slli	s3,s3,0x10
   14a04:	4109d993          	srai	s3,s3,0x10
   14a08:	01844783          	lbu	a5,24(s0)
   14a0c:	01a40593          	addi	a1,s0,26
   14a10:	00f9e9b3          	or	s3,s3,a5
   14a14:	01099993          	slli	s3,s3,0x10
   14a18:	0109d993          	srli	s3,s3,0x10
   14a1c:	00000793          	li	a5,0
   14a20:	0006d603          	lhu	a2,0(a3)
   14a24:	00268693          	addi	a3,a3,2
   14a28:	00865713          	srli	a4,a2,0x8
   14a2c:	00e7e733          	or	a4,a5,a4
   14a30:	00861793          	slli	a5,a2,0x8
   14a34:	01079793          	slli	a5,a5,0x10
   14a38:	fee69f23          	sh	a4,-2(a3)
   14a3c:	0107d793          	srli	a5,a5,0x10
   14a40:	feb690e3          	bne	a3,a1,14a20 <eshift.part.0+0x14c>
   14a44:	ff890913          	addi	s2,s2,-8
   14a48:	06090c63          	beqz	s2,14ac0 <eshift.part.0+0x1ec>
   14a4c:	01845783          	lhu	a5,24(s0)
   14a50:	fff90913          	addi	s2,s2,-1
   14a54:	00040513          	mv	a0,s0
   14a58:	0017f793          	andi	a5,a5,1
   14a5c:	0137e9b3          	or	s3,a5,s3
   14a60:	9e1ff0ef          	jal	ra,14440 <eshdn1>
   14a64:	fe0914e3          	bnez	s2,14a4c <eshift.part.0+0x178>
   14a68:	01099793          	slli	a5,s3,0x10
   14a6c:	4107d793          	srai	a5,a5,0x10
   14a70:	04079063          	bnez	a5,14ab0 <eshift.part.0+0x1dc>
   14a74:	01099513          	slli	a0,s3,0x10
   14a78:	01055513          	srli	a0,a0,0x10
   14a7c:	01c12083          	lw	ra,28(sp)
   14a80:	01812403          	lw	s0,24(sp)
   14a84:	01412483          	lw	s1,20(sp)
   14a88:	01012903          	lw	s2,16(sp)
   14a8c:	00c12983          	lw	s3,12(sp)
   14a90:	02010113          	addi	sp,sp,32
   14a94:	00008067          	ret
   14a98:	ff07f913          	andi	s2,a5,-16
   14a9c:	41200933          	neg	s2,s2
   14aa0:	00f90933          	add	s2,s2,a5
   14aa4:	00700793          	li	a5,7
   14aa8:	fb27d0e3          	bge	a5,s2,14a48 <eshift.part.0+0x174>
   14aac:	f55ff06f          	j	14a00 <eshift.part.0+0x12c>
   14ab0:	00100993          	li	s3,1
   14ab4:	01099513          	slli	a0,s3,0x10
   14ab8:	01055513          	srli	a0,a0,0x10
   14abc:	fc1ff06f          	j	14a7c <eshift.part.0+0x1a8>
   14ac0:	00098513          	mv	a0,s3
   14ac4:	00099863          	bnez	s3,14ad4 <eshift.part.0+0x200>
   14ac8:	01051513          	slli	a0,a0,0x10
   14acc:	01055513          	srli	a0,a0,0x10
   14ad0:	eb1ff06f          	j	14980 <eshift.part.0+0xac>
   14ad4:	00100513          	li	a0,1
   14ad8:	ff1ff06f          	j	14ac8 <eshift.part.0+0x1f4>
   14adc:	ff900793          	li	a5,-7
   14ae0:	00000993          	li	s3,0
   14ae4:	f6f5d4e3          	bge	a1,a5,14a4c <eshift.part.0+0x178>
   14ae8:	00440693          	addi	a3,s0,4
   14aec:	f1dff06f          	j	14a08 <eshift.part.0+0x134>

00014af0 <enormlz>:
   14af0:	00455783          	lhu	a5,4(a0)
   14af4:	ff010113          	addi	sp,sp,-16
   14af8:	00912223          	sw	s1,4(sp)
   14afc:	00112623          	sw	ra,12(sp)
   14b00:	00812423          	sw	s0,8(sp)
   14b04:	01212023          	sw	s2,0(sp)
   14b08:	00050493          	mv	s1,a0
   14b0c:	0c079c63          	bnez	a5,14be4 <enormlz+0xf4>
   14b10:	00655703          	lhu	a4,6(a0)
   14b14:	00000413          	li	s0,0
   14b18:	01071793          	slli	a5,a4,0x10
   14b1c:	4107d793          	srai	a5,a5,0x10
   14b20:	0a07c463          	bltz	a5,14bc8 <enormlz+0xd8>
   14b24:	01a50693          	addi	a3,a0,26
   14b28:	0a000613          	li	a2,160
   14b2c:	02071863          	bnez	a4,14b5c <enormlz+0x6c>
   14b30:	00648793          	addi	a5,s1,6
   14b34:	0080006f          	j	14b3c <enormlz+0x4c>
   14b38:	0007d703          	lhu	a4,0(a5)
   14b3c:	00278793          	addi	a5,a5,2
   14b40:	fee79e23          	sh	a4,-4(a5)
   14b44:	fef69ae3          	bne	a3,a5,14b38 <enormlz+0x48>
   14b48:	00049c23          	sh	zero,24(s1)
   14b4c:	01040413          	addi	s0,s0,16
   14b50:	06c40c63          	beq	s0,a2,14bc8 <enormlz+0xd8>
   14b54:	0064d703          	lhu	a4,6(s1)
   14b58:	fc070ce3          	beqz	a4,14b30 <enormlz+0x40>
   14b5c:	f0077793          	andi	a5,a4,-256
   14b60:	04079063          	bnez	a5,14ba0 <enormlz+0xb0>
   14b64:	01848513          	addi	a0,s1,24
   14b68:	00248593          	addi	a1,s1,2
   14b6c:	00000793          	li	a5,0
   14b70:	00050713          	mv	a4,a0
   14b74:	00075683          	lhu	a3,0(a4)
   14b78:	ffe70713          	addi	a4,a4,-2
   14b7c:	00869613          	slli	a2,a3,0x8
   14b80:	00c7e7b3          	or	a5,a5,a2
   14b84:	00f71123          	sh	a5,2(a4)
   14b88:	0086d793          	srli	a5,a3,0x8
   14b8c:	fee594e3          	bne	a1,a4,14b74 <enormlz+0x84>
   14b90:	0064d703          	lhu	a4,6(s1)
   14b94:	00840413          	addi	s0,s0,8
   14b98:	f0077793          	andi	a5,a4,-256
   14b9c:	fc0788e3          	beqz	a5,14b6c <enormlz+0x7c>
   14ba0:	0a000913          	li	s2,160
   14ba4:	0140006f          	j	14bb8 <enormlz+0xc8>
   14ba8:	00140413          	addi	s0,s0,1
   14bac:	8fdff0ef          	jal	ra,144a8 <eshup1>
   14bb0:	00894c63          	blt	s2,s0,14bc8 <enormlz+0xd8>
   14bb4:	0064d703          	lhu	a4,6(s1)
   14bb8:	01071713          	slli	a4,a4,0x10
   14bbc:	41075713          	srai	a4,a4,0x10
   14bc0:	00048513          	mv	a0,s1
   14bc4:	fe0752e3          	bgez	a4,14ba8 <enormlz+0xb8>
   14bc8:	00c12083          	lw	ra,12(sp)
   14bcc:	00040513          	mv	a0,s0
   14bd0:	00812403          	lw	s0,8(sp)
   14bd4:	00412483          	lw	s1,4(sp)
   14bd8:	00012903          	lw	s2,0(sp)
   14bdc:	01010113          	addi	sp,sp,16
   14be0:	00008067          	ret
   14be4:	f007f713          	andi	a4,a5,-256
   14be8:	00000413          	li	s0,0
   14bec:	04071063          	bnez	a4,14c2c <enormlz+0x13c>
   14bf0:	f6f00913          	li	s2,-145
   14bf4:	0140006f          	j	14c08 <enormlz+0x118>
   14bf8:	fff40413          	addi	s0,s0,-1
   14bfc:	845ff0ef          	jal	ra,14440 <eshdn1>
   14c00:	fd2404e3          	beq	s0,s2,14bc8 <enormlz+0xd8>
   14c04:	0044d783          	lhu	a5,4(s1)
   14c08:	00048513          	mv	a0,s1
   14c0c:	fe0796e3          	bnez	a5,14bf8 <enormlz+0x108>
   14c10:	00c12083          	lw	ra,12(sp)
   14c14:	00040513          	mv	a0,s0
   14c18:	00812403          	lw	s0,8(sp)
   14c1c:	00412483          	lw	s1,4(sp)
   14c20:	00012903          	lw	s2,0(sp)
   14c24:	01010113          	addi	sp,sp,16
   14c28:	00008067          	ret
   14c2c:	00450693          	addi	a3,a0,4
   14c30:	01a50593          	addi	a1,a0,26
   14c34:	00000713          	li	a4,0
   14c38:	0080006f          	j	14c40 <enormlz+0x150>
   14c3c:	0006d783          	lhu	a5,0(a3)
   14c40:	0087d613          	srli	a2,a5,0x8
   14c44:	00c76733          	or	a4,a4,a2
   14c48:	00879793          	slli	a5,a5,0x8
   14c4c:	00e69023          	sh	a4,0(a3)
   14c50:	01079713          	slli	a4,a5,0x10
   14c54:	00268693          	addi	a3,a3,2
   14c58:	01075713          	srli	a4,a4,0x10
   14c5c:	feb690e3          	bne	a3,a1,14c3c <enormlz+0x14c>
   14c60:	0044d783          	lhu	a5,4(s1)
   14c64:	ff800413          	li	s0,-8
   14c68:	f89ff06f          	j	14bf0 <enormlz+0x100>

00014c6c <emdnorm>:
   14c6c:	fe010113          	addi	sp,sp,-32
   14c70:	00812c23          	sw	s0,24(sp)
   14c74:	00912a23          	sw	s1,20(sp)
   14c78:	01212823          	sw	s2,16(sp)
   14c7c:	01312623          	sw	s3,12(sp)
   14c80:	01412423          	sw	s4,8(sp)
   14c84:	01512223          	sw	s5,4(sp)
   14c88:	00068913          	mv	s2,a3
   14c8c:	00078493          	mv	s1,a5
   14c90:	00112e23          	sw	ra,28(sp)
   14c94:	00050413          	mv	s0,a0
   14c98:	00058993          	mv	s3,a1
   14c9c:	00060a13          	mv	s4,a2
   14ca0:	00070a93          	mv	s5,a4
   14ca4:	e4dff0ef          	jal	ra,14af0 <enormlz>
   14ca8:	09000793          	li	a5,144
   14cac:	40a90933          	sub	s2,s2,a0
   14cb0:	16a7dc63          	bge	a5,a0,14e28 <emdnorm+0x1bc>
   14cb4:	000087b7          	lui	a5,0x8
   14cb8:	ffe78793          	addi	a5,a5,-2 # 7ffe <register_fini-0x8076>
   14cbc:	1f27da63          	bge	a5,s2,14eb0 <emdnorm+0x244>
   14cc0:	1c0a8463          	beqz	s5,14e88 <emdnorm+0x21c>
   14cc4:	0044a503          	lw	a0,4(s1)
   14cc8:	0004a783          	lw	a5,0(s1)
   14ccc:	06f50a63          	beq	a0,a5,14d40 <emdnorm+0xd4>
   14cd0:	01a48713          	addi	a4,s1,26
   14cd4:	03448793          	addi	a5,s1,52
   14cd8:	00270713          	addi	a4,a4,2
   14cdc:	fe071f23          	sh	zero,-2(a4)
   14ce0:	fef71ce3          	bne	a4,a5,14cd8 <emdnorm+0x6c>
   14ce4:	03800793          	li	a5,56
   14ce8:	32f50c63          	beq	a0,a5,15020 <emdnorm+0x3b4>
   14cec:	16a7d063          	bge	a5,a0,14e4c <emdnorm+0x1e0>
   14cf0:	04000793          	li	a5,64
   14cf4:	2ef50c63          	beq	a0,a5,14fec <emdnorm+0x380>
   14cf8:	07100793          	li	a5,113
   14cfc:	34f51863          	bne	a0,a5,1504c <emdnorm+0x3e0>
   14d00:	400087b7          	lui	a5,0x40008
   14d04:	fff78793          	addi	a5,a5,-1 # 40007fff <__BSS_END__+0x3ffe102f>
   14d08:	00a00713          	li	a4,10
   14d0c:	00f4aa23          	sw	a5,20(s1)
   14d10:	ffff87b7          	lui	a5,0xffff8
   14d14:	00e4a423          	sw	a4,8(s1)
   14d18:	00f49c23          	sh	a5,24(s1)
   14d1c:	00e4a623          	sw	a4,12(s1)
   14d20:	00a00793          	li	a5,10
   14d24:	00008737          	lui	a4,0x8
   14d28:	00878793          	addi	a5,a5,8 # ffff8008 <__BSS_END__+0xfffd1038>
   14d2c:	00179793          	slli	a5,a5,0x1
   14d30:	00f487b3          	add	a5,s1,a5
   14d34:	00e79523          	sh	a4,10(a5)
   14d38:	00a4a023          	sw	a0,0(s1)
   14d3c:	1b205863          	blez	s2,14eec <emdnorm+0x280>
   14d40:	0084a583          	lw	a1,8(s1)
   14d44:	0144d783          	lhu	a5,20(s1)
   14d48:	08f00813          	li	a6,143
   14d4c:	00159613          	slli	a2,a1,0x1
   14d50:	00c40633          	add	a2,s0,a2
   14d54:	00065703          	lhu	a4,0(a2)
   14d58:	00f776b3          	and	a3,a4,a5
   14d5c:	02a84a63          	blt	a6,a0,14d90 <emdnorm+0x124>
   14d60:	00b00813          	li	a6,11
   14d64:	02b84663          	blt	a6,a1,14d90 <emdnorm+0x124>
   14d68:	00060793          	mv	a5,a2
   14d6c:	01840593          	addi	a1,s0,24
   14d70:	0027d703          	lhu	a4,2(a5)
   14d74:	00070463          	beqz	a4,14d7c <emdnorm+0x110>
   14d78:	0016e693          	ori	a3,a3,1
   14d7c:	00079123          	sh	zero,2(a5)
   14d80:	00278793          	addi	a5,a5,2
   14d84:	fef596e3          	bne	a1,a5,14d70 <emdnorm+0x104>
   14d88:	00065703          	lhu	a4,0(a2)
   14d8c:	0144d783          	lhu	a5,20(s1)
   14d90:	fff7c793          	not	a5,a5
   14d94:	00e7f7b3          	and	a5,a5,a4
   14d98:	00f61023          	sh	a5,0(a2)
   14d9c:	0164d783          	lhu	a5,22(s1)
   14da0:	00d7f733          	and	a4,a5,a3
   14da4:	04070063          	beqz	a4,14de4 <emdnorm+0x178>
   14da8:	1ad78463          	beq	a5,a3,14f50 <emdnorm+0x2e4>
   14dac:	03248613          	addi	a2,s1,50
   14db0:	01840693          	addi	a3,s0,24
   14db4:	01c48493          	addi	s1,s1,28
   14db8:	00000713          	li	a4,0
   14dbc:	00065783          	lhu	a5,0(a2)
   14dc0:	0006d583          	lhu	a1,0(a3)
   14dc4:	ffe68693          	addi	a3,a3,-2
   14dc8:	ffe60613          	addi	a2,a2,-2
   14dcc:	00b787b3          	add	a5,a5,a1
   14dd0:	00e787b3          	add	a5,a5,a4
   14dd4:	0107d713          	srli	a4,a5,0x10
   14dd8:	00f69123          	sh	a5,2(a3)
   14ddc:	00177713          	andi	a4,a4,1
   14de0:	fc961ee3          	bne	a2,s1,14dbc <emdnorm+0x150>
   14de4:	19205863          	blez	s2,14f74 <emdnorm+0x308>
   14de8:	00445783          	lhu	a5,4(s0)
   14dec:	12079e63          	bnez	a5,14f28 <emdnorm+0x2bc>
   14df0:	000087b7          	lui	a5,0x8
   14df4:	00041c23          	sh	zero,24(s0)
   14df8:	ffe78793          	addi	a5,a5,-2 # 7ffe <register_fini-0x8076>
   14dfc:	0927c863          	blt	a5,s2,14e8c <emdnorm+0x220>
   14e00:	01241123          	sh	s2,2(s0)
   14e04:	01c12083          	lw	ra,28(sp)
   14e08:	01812403          	lw	s0,24(sp)
   14e0c:	01412483          	lw	s1,20(sp)
   14e10:	01012903          	lw	s2,16(sp)
   14e14:	00c12983          	lw	s3,12(sp)
   14e18:	00812a03          	lw	s4,8(sp)
   14e1c:	00412a83          	lw	s5,4(sp)
   14e20:	02010113          	addi	sp,sp,32
   14e24:	00008067          	ret
   14e28:	0e095463          	bgez	s2,14f10 <emdnorm+0x2a4>
   14e2c:	f7000793          	li	a5,-144
   14e30:	08f95c63          	bge	s2,a5,14ec8 <emdnorm+0x25c>
   14e34:	00240793          	addi	a5,s0,2
   14e38:	01a40413          	addi	s0,s0,26
   14e3c:	00278793          	addi	a5,a5,2
   14e40:	fe079f23          	sh	zero,-2(a5)
   14e44:	fe879ce3          	bne	a5,s0,14e3c <emdnorm+0x1d0>
   14e48:	fbdff06f          	j	14e04 <emdnorm+0x198>
   14e4c:	01800793          	li	a5,24
   14e50:	16f50863          	beq	a0,a5,14fc0 <emdnorm+0x354>
   14e54:	03500793          	li	a5,53
   14e58:	1ef51a63          	bne	a0,a5,1504c <emdnorm+0x3e0>
   14e5c:	00001737          	lui	a4,0x1
   14e60:	040007b7          	lui	a5,0x4000
   14e64:	00600693          	li	a3,6
   14e68:	7ff78793          	addi	a5,a5,2047 # 40007ff <__BSS_END__+0x3fd982f>
   14e6c:	80070713          	addi	a4,a4,-2048 # 800 <register_fini-0xf874>
   14e70:	00f4aa23          	sw	a5,20(s1)
   14e74:	00d4a423          	sw	a3,8(s1)
   14e78:	00e49c23          	sh	a4,24(s1)
   14e7c:	00d4a623          	sw	a3,12(s1)
   14e80:	00600793          	li	a5,6
   14e84:	ea5ff06f          	j	14d28 <emdnorm+0xbc>
   14e88:	00041c23          	sh	zero,24(s0)
   14e8c:	ffff87b7          	lui	a5,0xffff8
   14e90:	fff7c793          	not	a5,a5
   14e94:	00f41123          	sh	a5,2(s0)
   14e98:	00440793          	addi	a5,s0,4
   14e9c:	01840413          	addi	s0,s0,24
   14ea0:	00079023          	sh	zero,0(a5) # ffff8000 <__BSS_END__+0xfffd1030>
   14ea4:	00278793          	addi	a5,a5,2
   14ea8:	fef41ce3          	bne	s0,a5,14ea0 <emdnorm+0x234>
   14eac:	f59ff06f          	j	14e04 <emdnorm+0x198>
   14eb0:	00240793          	addi	a5,s0,2
   14eb4:	01a40413          	addi	s0,s0,26
   14eb8:	00278793          	addi	a5,a5,2
   14ebc:	fe079f23          	sh	zero,-2(a5)
   14ec0:	fe879ce3          	bne	a5,s0,14eb8 <emdnorm+0x24c>
   14ec4:	f41ff06f          	j	14e04 <emdnorm+0x198>
   14ec8:	00090593          	mv	a1,s2
   14ecc:	00040513          	mv	a0,s0
   14ed0:	a05ff0ef          	jal	ra,148d4 <eshift.part.0>
   14ed4:	00050463          	beqz	a0,14edc <emdnorm+0x270>
   14ed8:	00100993          	li	s3,1
   14edc:	0c0a8c63          	beqz	s5,14fb4 <emdnorm+0x348>
   14ee0:	0044a503          	lw	a0,4(s1)
   14ee4:	0004a783          	lw	a5,0(s1)
   14ee8:	def514e3          	bne	a0,a5,14cd0 <emdnorm+0x64>
   14eec:	09000793          	li	a5,144
   14ef0:	0af50463          	beq	a0,a5,14f98 <emdnorm+0x32c>
   14ef4:	01845783          	lhu	a5,24(s0)
   14ef8:	00040513          	mv	a0,s0
   14efc:	0017f793          	andi	a5,a5,1
   14f00:	00f9e9b3          	or	s3,s3,a5
   14f04:	d3cff0ef          	jal	ra,14440 <eshdn1>
   14f08:	0044a503          	lw	a0,4(s1)
   14f0c:	e35ff06f          	j	14d40 <emdnorm+0xd4>
   14f10:	ee0a80e3          	beqz	s5,14df0 <emdnorm+0x184>
   14f14:	0044a503          	lw	a0,4(s1)
   14f18:	0004a783          	lw	a5,0(s1)
   14f1c:	daf51ae3          	bne	a0,a5,14cd0 <emdnorm+0x64>
   14f20:	e32040e3          	bgtz	s2,14d40 <emdnorm+0xd4>
   14f24:	fc9ff06f          	j	14eec <emdnorm+0x280>
   14f28:	00040513          	mv	a0,s0
   14f2c:	d14ff0ef          	jal	ra,14440 <eshdn1>
   14f30:	000087b7          	lui	a5,0x8
   14f34:	00190913          	addi	s2,s2,1
   14f38:	00041c23          	sh	zero,24(s0)
   14f3c:	ffe78793          	addi	a5,a5,-2 # 7ffe <register_fini-0x8076>
   14f40:	f527c6e3          	blt	a5,s2,14e8c <emdnorm+0x220>
   14f44:	ea095ee3          	bgez	s2,14e00 <emdnorm+0x194>
   14f48:	00041123          	sh	zero,2(s0)
   14f4c:	eb9ff06f          	j	14e04 <emdnorm+0x198>
   14f50:	0c099463          	bnez	s3,15018 <emdnorm+0x3ac>
   14f54:	00c4a783          	lw	a5,12(s1)
   14f58:	0184d703          	lhu	a4,24(s1)
   14f5c:	00179793          	slli	a5,a5,0x1
   14f60:	00f407b3          	add	a5,s0,a5
   14f64:	0007d783          	lhu	a5,0(a5)
   14f68:	00e7f7b3          	and	a5,a5,a4
   14f6c:	e40790e3          	bnez	a5,14dac <emdnorm+0x140>
   14f70:	e7204ce3          	bgtz	s2,14de8 <emdnorm+0x17c>
   14f74:	09000793          	li	a5,144
   14f78:	00f50663          	beq	a0,a5,14f84 <emdnorm+0x318>
   14f7c:	00040513          	mv	a0,s0
   14f80:	d28ff0ef          	jal	ra,144a8 <eshup1>
   14f84:	00445783          	lhu	a5,4(s0)
   14f88:	fa0790e3          	bnez	a5,14f28 <emdnorm+0x2bc>
   14f8c:	00041c23          	sh	zero,24(s0)
   14f90:	fa094ce3          	bltz	s2,14f48 <emdnorm+0x2dc>
   14f94:	e6dff06f          	j	14e00 <emdnorm+0x194>
   14f98:	0084a603          	lw	a2,8(s1)
   14f9c:	0144d783          	lhu	a5,20(s1)
   14fa0:	00161613          	slli	a2,a2,0x1
   14fa4:	00c40633          	add	a2,s0,a2
   14fa8:	00065703          	lhu	a4,0(a2)
   14fac:	00e7f6b3          	and	a3,a5,a4
   14fb0:	de1ff06f          	j	14d90 <emdnorm+0x124>
   14fb4:	00041c23          	sh	zero,24(s0)
   14fb8:	00041123          	sh	zero,2(s0)
   14fbc:	e49ff06f          	j	14e04 <emdnorm+0x198>
   14fc0:	008007b7          	lui	a5,0x800
   14fc4:	0ff78793          	addi	a5,a5,255 # 8000ff <__BSS_END__+0x7d912f>
   14fc8:	00400713          	li	a4,4
   14fcc:	00f4aa23          	sw	a5,20(s1)
   14fd0:	10000793          	li	a5,256
   14fd4:	00e4a423          	sw	a4,8(s1)
   14fd8:	00f49c23          	sh	a5,24(s1)
   14fdc:	00e4a623          	sw	a4,12(s1)
   14fe0:	00400793          	li	a5,4
   14fe4:	10000713          	li	a4,256
   14fe8:	d41ff06f          	j	14d28 <emdnorm+0xbc>
   14fec:	00700793          	li	a5,7
   14ff0:	00f4a423          	sw	a5,8(s1)
   14ff4:	800107b7          	lui	a5,0x80010
   14ff8:	fff78793          	addi	a5,a5,-1 # 8000ffff <__BSS_END__+0x7ffe902f>
   14ffc:	00f4aa23          	sw	a5,20(s1)
   15000:	00100793          	li	a5,1
   15004:	00f49c23          	sh	a5,24(s1)
   15008:	00600793          	li	a5,6
   1500c:	00f4a623          	sw	a5,12(s1)
   15010:	00100713          	li	a4,1
   15014:	d15ff06f          	j	14d28 <emdnorm+0xbc>
   15018:	d80a0ae3          	beqz	s4,14dac <emdnorm+0x140>
   1501c:	dc9ff06f          	j	14de4 <emdnorm+0x178>
   15020:	008007b7          	lui	a5,0x800
   15024:	0ff78793          	addi	a5,a5,255 # 8000ff <__BSS_END__+0x7d912f>
   15028:	00600713          	li	a4,6
   1502c:	00f4aa23          	sw	a5,20(s1)
   15030:	10000793          	li	a5,256
   15034:	00e4a423          	sw	a4,8(s1)
   15038:	00f49c23          	sh	a5,24(s1)
   1503c:	00e4a623          	sw	a4,12(s1)
   15040:	00600793          	li	a5,6
   15044:	10000713          	li	a4,256
   15048:	ce1ff06f          	j	14d28 <emdnorm+0xbc>
   1504c:	00c00793          	li	a5,12
   15050:	00f4a423          	sw	a5,8(s1)
   15054:	800107b7          	lui	a5,0x80010
   15058:	fff78793          	addi	a5,a5,-1 # 8000ffff <__BSS_END__+0x7ffe902f>
   1505c:	00f4aa23          	sw	a5,20(s1)
   15060:	00100793          	li	a5,1
   15064:	00f49c23          	sh	a5,24(s1)
   15068:	00b00793          	li	a5,11
   1506c:	00f4a623          	sw	a5,12(s1)
   15070:	00100713          	li	a4,1
   15074:	cb5ff06f          	j	14d28 <emdnorm+0xbc>

00015078 <eiremain>:
   15078:	fd010113          	addi	sp,sp,-48
   1507c:	02912223          	sw	s1,36(sp)
   15080:	01312e23          	sw	s3,28(sp)
   15084:	00058493          	mv	s1,a1
   15088:	00255983          	lhu	s3,2(a0)
   1508c:	02112623          	sw	ra,44(sp)
   15090:	02812423          	sw	s0,40(sp)
   15094:	03212023          	sw	s2,32(sp)
   15098:	01412c23          	sw	s4,24(sp)
   1509c:	00060913          	mv	s2,a2
   150a0:	01512a23          	sw	s5,20(sp)
   150a4:	01612823          	sw	s6,16(sp)
   150a8:	01712623          	sw	s7,12(sp)
   150ac:	01812423          	sw	s8,8(sp)
   150b0:	01912223          	sw	s9,4(sp)
   150b4:	01a12023          	sw	s10,0(sp)
   150b8:	00050a13          	mv	s4,a0
   150bc:	a35ff0ef          	jal	ra,14af0 <enormlz>
   150c0:	0024d403          	lhu	s0,2(s1)
   150c4:	00050793          	mv	a5,a0
   150c8:	00048513          	mv	a0,s1
   150cc:	40f989b3          	sub	s3,s3,a5
   150d0:	03490a93          	addi	s5,s2,52
   150d4:	a1dff0ef          	jal	ra,14af0 <enormlz>
   150d8:	40a40433          	sub	s0,s0,a0
   150dc:	04e90713          	addi	a4,s2,78
   150e0:	000a8793          	mv	a5,s5
   150e4:	00278793          	addi	a5,a5,2
   150e8:	fe079f23          	sh	zero,-2(a5)
   150ec:	fee79ce3          	bne	a5,a4,150e4 <eiremain+0x6c>
   150f0:	09344a63          	blt	s0,s3,15184 <eiremain+0x10c>
   150f4:	004a0b93          	addi	s7,s4,4
   150f8:	00448b13          	addi	s6,s1,4
   150fc:	fff98993          	addi	s3,s3,-1
   15100:	01aa0c93          	addi	s9,s4,26
   15104:	00248c13          	addi	s8,s1,2
   15108:	000b0713          	mv	a4,s6
   1510c:	000b8793          	mv	a5,s7
   15110:	0007d603          	lhu	a2,0(a5)
   15114:	00075683          	lhu	a3,0(a4)
   15118:	00278793          	addi	a5,a5,2
   1511c:	00270713          	addi	a4,a4,2
   15120:	0ad61a63          	bne	a2,a3,151d4 <eiremain+0x15c>
   15124:	ff9796e3          	bne	a5,s9,15110 <eiremain+0x98>
   15128:	018a0613          	addi	a2,s4,24
   1512c:	01848713          	addi	a4,s1,24
   15130:	00000693          	li	a3,0
   15134:	00075783          	lhu	a5,0(a4)
   15138:	00065583          	lhu	a1,0(a2)
   1513c:	ffe70713          	addi	a4,a4,-2
   15140:	40d787b3          	sub	a5,a5,a3
   15144:	40b787b3          	sub	a5,a5,a1
   15148:	0107d693          	srli	a3,a5,0x10
   1514c:	00f71123          	sh	a5,2(a4)
   15150:	0016f693          	andi	a3,a3,1
   15154:	ffe60613          	addi	a2,a2,-2
   15158:	fcec1ee3          	bne	s8,a4,15134 <eiremain+0xbc>
   1515c:	00100d13          	li	s10,1
   15160:	000a8513          	mv	a0,s5
   15164:	b44ff0ef          	jal	ra,144a8 <eshup1>
   15168:	04c95783          	lhu	a5,76(s2)
   1516c:	fff40413          	addi	s0,s0,-1
   15170:	00048513          	mv	a0,s1
   15174:	00fd6d33          	or	s10,s10,a5
   15178:	05a91623          	sh	s10,76(s2)
   1517c:	b2cff0ef          	jal	ra,144a8 <eshup1>
   15180:	f93414e3          	bne	s0,s3,15108 <eiremain+0x90>
   15184:	00040693          	mv	a3,s0
   15188:	02812403          	lw	s0,40(sp)
   1518c:	02c12083          	lw	ra,44(sp)
   15190:	01c12983          	lw	s3,28(sp)
   15194:	01812a03          	lw	s4,24(sp)
   15198:	01412a83          	lw	s5,20(sp)
   1519c:	01012b03          	lw	s6,16(sp)
   151a0:	00c12b83          	lw	s7,12(sp)
   151a4:	00812c03          	lw	s8,8(sp)
   151a8:	00412c83          	lw	s9,4(sp)
   151ac:	00012d03          	lw	s10,0(sp)
   151b0:	00090793          	mv	a5,s2
   151b4:	00048513          	mv	a0,s1
   151b8:	02012903          	lw	s2,32(sp)
   151bc:	02412483          	lw	s1,36(sp)
   151c0:	00000713          	li	a4,0
   151c4:	00000613          	li	a2,0
   151c8:	00000593          	li	a1,0
   151cc:	03010113          	addi	sp,sp,48
   151d0:	a9dff06f          	j	14c6c <emdnorm>
   151d4:	00000d13          	li	s10,0
   151d8:	f8c6e4e3          	bltu	a3,a2,15160 <eiremain+0xe8>
   151dc:	f4dff06f          	j	15128 <eiremain+0xb0>

000151e0 <emovo.isra.0>:
   151e0:	00055703          	lhu	a4,0(a0)
   151e4:	00255783          	lhu	a5,2(a0)
   151e8:	00070663          	beqz	a4,151f4 <emovo.isra.0+0x14>
   151ec:	00008737          	lui	a4,0x8
   151f0:	00e7e7b3          	or	a5,a5,a4
   151f4:	00f59923          	sh	a5,18(a1)
   151f8:	00255703          	lhu	a4,2(a0)
   151fc:	000087b7          	lui	a5,0x8
   15200:	fff78793          	addi	a5,a5,-1 # 7fff <register_fini-0x8075>
   15204:	02f70463          	beq	a4,a5,1522c <emovo.isra.0+0x4c>
   15208:	00650793          	addi	a5,a0,6
   1520c:	01058593          	addi	a1,a1,16
   15210:	01850513          	addi	a0,a0,24
   15214:	0007d703          	lhu	a4,0(a5)
   15218:	00278793          	addi	a5,a5,2
   1521c:	ffe58593          	addi	a1,a1,-2
   15220:	00e59123          	sh	a4,2(a1)
   15224:	fea798e3          	bne	a5,a0,15214 <emovo.isra.0+0x34>
   15228:	00008067          	ret
   1522c:	00650793          	addi	a5,a0,6
   15230:	01a50513          	addi	a0,a0,26
   15234:	0007d703          	lhu	a4,0(a5)
   15238:	00278793          	addi	a5,a5,2
   1523c:	02071a63          	bnez	a4,15270 <emovo.isra.0+0x90>
   15240:	fea79ae3          	bne	a5,a0,15234 <emovo.isra.0+0x54>
   15244:	01258713          	addi	a4,a1,18
   15248:	00058793          	mv	a5,a1
   1524c:	00278793          	addi	a5,a5,2
   15250:	fe079f23          	sh	zero,-2(a5)
   15254:	fef71ce3          	bne	a4,a5,1524c <emovo.isra.0+0x6c>
   15258:	0125d783          	lhu	a5,18(a1)
   1525c:	00008737          	lui	a4,0x8
   15260:	fff70713          	addi	a4,a4,-1 # 7fff <register_fini-0x8075>
   15264:	00e7e7b3          	or	a5,a5,a4
   15268:	00f59923          	sh	a5,18(a1)
   1526c:	00008067          	ret
   15270:	01058713          	addi	a4,a1,16
   15274:	00058793          	mv	a5,a1
   15278:	00278793          	addi	a5,a5,2
   1527c:	fe079f23          	sh	zero,-2(a5)
   15280:	fef71ce3          	bne	a4,a5,15278 <emovo.isra.0+0x98>
   15284:	7fffc7b7          	lui	a5,0x7fffc
   15288:	00f5a823          	sw	a5,16(a1)
   1528c:	00008067          	ret

00015290 <emul>:
   15290:	f7010113          	addi	sp,sp,-144
   15294:	07612823          	sw	s6,112(sp)
   15298:	01255b03          	lhu	s6,18(a0)
   1529c:	000087b7          	lui	a5,0x8
   152a0:	fff78793          	addi	a5,a5,-1 # 7fff <register_fini-0x8075>
   152a4:	07412c23          	sw	s4,120(sp)
   152a8:	0167fa33          	and	s4,a5,s6
   152ac:	010a1a13          	slli	s4,s4,0x10
   152b0:	08812423          	sw	s0,136(sp)
   152b4:	08912223          	sw	s1,132(sp)
   152b8:	09212023          	sw	s2,128(sp)
   152bc:	07312e23          	sw	s3,124(sp)
   152c0:	08112623          	sw	ra,140(sp)
   152c4:	07512a23          	sw	s5,116(sp)
   152c8:	07712623          	sw	s7,108(sp)
   152cc:	07812423          	sw	s8,104(sp)
   152d0:	07912223          	sw	s9,100(sp)
   152d4:	010a5a13          	srli	s4,s4,0x10
   152d8:	00050493          	mv	s1,a0
   152dc:	00058913          	mv	s2,a1
   152e0:	00060413          	mv	s0,a2
   152e4:	00068993          	mv	s3,a3
   152e8:	10fa1263          	bne	s4,a5,153ec <emul+0x15c>
   152ec:	b08ff0ef          	jal	ra,145f4 <eisnan.part.0>
   152f0:	28051a63          	bnez	a0,15584 <emul+0x2f4>
   152f4:	01295a83          	lhu	s5,18(s2)
   152f8:	015a77b3          	and	a5,s4,s5
   152fc:	2b478263          	beq	a5,s4,155a0 <emul+0x310>
   15300:	00048513          	mv	a0,s1
   15304:	db4ff0ef          	jal	ra,148b8 <eisinf.part.0>
   15308:	2e050e63          	beqz	a0,15604 <emul+0x374>
   1530c:	000255b7          	lui	a1,0x25
   15310:	9fc58593          	addi	a1,a1,-1540 # 249fc <ezero>
   15314:	00090513          	mv	a0,s2
   15318:	c84ff0ef          	jal	ra,1479c <ecmp>
   1531c:	36050663          	beqz	a0,15688 <emul+0x3f8>
   15320:	01295a83          	lhu	s5,18(s2)
   15324:	000087b7          	lui	a5,0x8
   15328:	fff78793          	addi	a5,a5,-1 # 7fff <register_fini-0x8075>
   1532c:	0157fab3          	and	s5,a5,s5
   15330:	010a9a93          	slli	s5,s5,0x10
   15334:	010ada93          	srli	s5,s5,0x10
   15338:	2cfa9463          	bne	s5,a5,15600 <emul+0x370>
   1533c:	00090513          	mv	a0,s2
   15340:	d78ff0ef          	jal	ra,148b8 <eisinf.part.0>
   15344:	32051063          	bnez	a0,15664 <emul+0x3d4>
   15348:	0124d783          	lhu	a5,18(s1)
   1534c:	00faf7b3          	and	a5,s5,a5
   15350:	0b579863          	bne	a5,s5,15400 <emul+0x170>
   15354:	00048513          	mv	a0,s1
   15358:	d60ff0ef          	jal	ra,148b8 <eisinf.part.0>
   1535c:	00051863          	bnez	a0,1536c <emul+0xdc>
   15360:	00090513          	mv	a0,s2
   15364:	d54ff0ef          	jal	ra,148b8 <eisinf.part.0>
   15368:	08050c63          	beqz	a0,15400 <emul+0x170>
   1536c:	00048513          	mv	a0,s1
   15370:	af4ff0ef          	jal	ra,14664 <eisneg>
   15374:	00050493          	mv	s1,a0
   15378:	00090513          	mv	a0,s2
   1537c:	ae8ff0ef          	jal	ra,14664 <eisneg>
   15380:	40a484b3          	sub	s1,s1,a0
   15384:	009034b3          	snez	s1,s1
   15388:	00f49493          	slli	s1,s1,0xf
   1538c:	00941923          	sh	s1,18(s0)
   15390:	01240713          	addi	a4,s0,18
   15394:	00040793          	mv	a5,s0
   15398:	00278793          	addi	a5,a5,2
   1539c:	fe079f23          	sh	zero,-2(a5)
   153a0:	fef71ce3          	bne	a4,a5,15398 <emul+0x108>
   153a4:	01245783          	lhu	a5,18(s0)
   153a8:	00008737          	lui	a4,0x8
   153ac:	fff70713          	addi	a4,a4,-1 # 7fff <register_fini-0x8075>
   153b0:	00e7e7b3          	or	a5,a5,a4
   153b4:	00f41923          	sh	a5,18(s0)
   153b8:	08c12083          	lw	ra,140(sp)
   153bc:	08812403          	lw	s0,136(sp)
   153c0:	08412483          	lw	s1,132(sp)
   153c4:	08012903          	lw	s2,128(sp)
   153c8:	07c12983          	lw	s3,124(sp)
   153cc:	07812a03          	lw	s4,120(sp)
   153d0:	07412a83          	lw	s5,116(sp)
   153d4:	07012b03          	lw	s6,112(sp)
   153d8:	06c12b83          	lw	s7,108(sp)
   153dc:	06812c03          	lw	s8,104(sp)
   153e0:	06412c83          	lw	s9,100(sp)
   153e4:	09010113          	addi	sp,sp,144
   153e8:	00008067          	ret
   153ec:	0125da83          	lhu	s5,18(a1)
   153f0:	0157f733          	and	a4,a5,s5
   153f4:	01071713          	slli	a4,a4,0x10
   153f8:	01075713          	srli	a4,a4,0x10
   153fc:	04f70a63          	beq	a4,a5,15450 <emul+0x1c0>
   15400:	00048513          	mv	a0,s1
   15404:	00c10593          	addi	a1,sp,12
   15408:	a9cff0ef          	jal	ra,146a4 <emovi>
   1540c:	00090513          	mv	a0,s2
   15410:	02810593          	addi	a1,sp,40
   15414:	a90ff0ef          	jal	ra,146a4 <emovi>
   15418:	00e15483          	lhu	s1,14(sp)
   1541c:	02a15903          	lhu	s2,42(sp)
   15420:	04049c63          	bnez	s1,15478 <emul+0x1e8>
   15424:	01010793          	addi	a5,sp,16
   15428:	02410693          	addi	a3,sp,36
   1542c:	20d78863          	beq	a5,a3,1563c <emul+0x3ac>
   15430:	0007d703          	lhu	a4,0(a5)
   15434:	00278793          	addi	a5,a5,2
   15438:	fe070ae3          	beqz	a4,1542c <emul+0x19c>
   1543c:	00c10513          	addi	a0,sp,12
   15440:	eb0ff0ef          	jal	ra,14af0 <enormlz>
   15444:	02a15703          	lhu	a4,42(sp)
   15448:	40a004b3          	neg	s1,a0
   1544c:	0300006f          	j	1547c <emul+0x1ec>
   15450:	00058513          	mv	a0,a1
   15454:	9a0ff0ef          	jal	ra,145f4 <eisnan.part.0>
   15458:	ec0506e3          	beqz	a0,15324 <emul+0x94>
   1545c:	01490713          	addi	a4,s2,20
   15460:	00095783          	lhu	a5,0(s2)
   15464:	00290913          	addi	s2,s2,2
   15468:	00240413          	addi	s0,s0,2
   1546c:	fef41f23          	sh	a5,-2(s0)
   15470:	fee918e3          	bne	s2,a4,15460 <emul+0x1d0>
   15474:	f45ff06f          	j	153b8 <emul+0x128>
   15478:	00090713          	mv	a4,s2
   1547c:	00090a93          	mv	s5,s2
   15480:	02c10793          	addi	a5,sp,44
   15484:	04010693          	addi	a3,sp,64
   15488:	02071263          	bnez	a4,154ac <emul+0x21c>
   1548c:	1cf68263          	beq	a3,a5,15650 <emul+0x3c0>
   15490:	0007d703          	lhu	a4,0(a5)
   15494:	00278793          	addi	a5,a5,2
   15498:	fe070ae3          	beqz	a4,1548c <emul+0x1fc>
   1549c:	02810513          	addi	a0,sp,40
   154a0:	e50ff0ef          	jal	ra,14af0 <enormlz>
   154a4:	02a15703          	lhu	a4,42(sp)
   154a8:	40a90ab3          	sub	s5,s2,a0
   154ac:	02815783          	lhu	a5,40(sp)
   154b0:	03898c13          	addi	s8,s3,56
   154b4:	02e99b23          	sh	a4,54(s3)
   154b8:	02f99a23          	sh	a5,52(s3)
   154bc:	04e98713          	addi	a4,s3,78
   154c0:	000c0793          	mv	a5,s8
   154c4:	00079023          	sh	zero,0(a5)
   154c8:	00278793          	addi	a5,a5,2
   154cc:	fef71ce3          	bne	a4,a5,154c4 <emul+0x234>
   154d0:	04c98a13          	addi	s4,s3,76
   154d4:	00000b93          	li	s7,0
   154d8:	02410913          	addi	s2,sp,36
   154dc:	01010c93          	addi	s9,sp,16
   154e0:	04610b13          	addi	s6,sp,70
   154e4:	00095503          	lhu	a0,0(s2)
   154e8:	ffe90913          	addi	s2,s2,-2
   154ec:	0c051863          	bnez	a0,155bc <emul+0x32c>
   154f0:	04c9d703          	lhu	a4,76(s3)
   154f4:	000a0793          	mv	a5,s4
   154f8:	00ebebb3          	or	s7,s7,a4
   154fc:	ffe7d703          	lhu	a4,-2(a5)
   15500:	ffe78793          	addi	a5,a5,-2
   15504:	00e79123          	sh	a4,2(a5)
   15508:	ff879ae3          	bne	a5,s8,154fc <emul+0x26c>
   1550c:	02099c23          	sh	zero,56(s3)
   15510:	fd991ae3          	bne	s2,s9,154e4 <emul+0x254>
   15514:	03498713          	addi	a4,s3,52
   15518:	02810793          	addi	a5,sp,40
   1551c:	04210593          	addi	a1,sp,66
   15520:	00075603          	lhu	a2,0(a4)
   15524:	00278793          	addi	a5,a5,2
   15528:	00270713          	addi	a4,a4,2
   1552c:	fec79f23          	sh	a2,-2(a5)
   15530:	fef598e3          	bne	a1,a5,15520 <emul+0x290>
   15534:	ffffc6b7          	lui	a3,0xffffc
   15538:	015484b3          	add	s1,s1,s5
   1553c:	00268693          	addi	a3,a3,2 # ffffc002 <__BSS_END__+0xfffd5032>
   15540:	000b8593          	mv	a1,s7
   15544:	02810513          	addi	a0,sp,40
   15548:	00098793          	mv	a5,s3
   1554c:	04000713          	li	a4,64
   15550:	00d486b3          	add	a3,s1,a3
   15554:	00000613          	li	a2,0
   15558:	f14ff0ef          	jal	ra,14c6c <emdnorm>
   1555c:	02815703          	lhu	a4,40(sp)
   15560:	00c15783          	lhu	a5,12(sp)
   15564:	00040593          	mv	a1,s0
   15568:	02810513          	addi	a0,sp,40
   1556c:	40e787b3          	sub	a5,a5,a4
